libasyncaudio.so.1.6:_Z21create_AudioDeviceOSSRKNSt7__cxx1112basic_stringIcSt11char_traitsIcESaIcEEE
libasyncaudio.so.1.6:_Z21create_AudioDeviceUDPRKNSt7__cxx1112basic_stringIcSt11char_traitsIcESaIcEEE
libasyncaudio.so.1.6:_Z22create_AudioDeviceAlsaRKNSt7__cxx1112basic_stringIcSt11char_traitsIcESaIcEEE
libasyncaudio.so.1.6:_ZN4sigc8internal10slot_call0INS_18bound_mem_functor0IvN5Async13AudioSplitterEEEvE7call_itEPNS0_8slot_repE
libasyncaudio.so.1.6:_ZN4sigc8internal10slot_call0INS_18bound_mem_functor0IvN5Async14AudioProcessorEEEvE7call_itEPNS0_8slot_repE
libasyncaudio.so.1.6:_ZN4sigc8internal14typed_slot_repINS_12hide_functorILin1ENS_18bound_mem_functor0IvN5Async14AudioDeviceUDPEEEEEE3dupEPv
libasyncaudio.so.1.6:_ZN4sigc8internal14typed_slot_repINS_12hide_functorILin1ENS_18bound_mem_functor0IvN5Async14AudioDeviceUDPEEEEEE7destroyEPv
libasyncaudio.so.1.6:_ZN4sigc8internal14typed_slot_repINS_18bound_mem_functor0IvN5Async13AudioSplitterEEEE3dupEPv
libasyncaudio.so.1.6:_ZN4sigc8internal14typed_slot_repINS_18bound_mem_functor0IvN5Async13AudioSplitterEEEE7destroyEPv
libasyncaudio.so.1.6:_ZN4sigc8internal14typed_slot_repINS_18bound_mem_functor0IvN5Async14AudioProcessorEEEE3dupEPv
libasyncaudio.so.1.6:_ZN4sigc8internal14typed_slot_repINS_18bound_mem_functor0IvN5Async14AudioProcessorEEEE7destroyEPv
libasyncaudio.so.1.6:_ZN4sigc8internal14typed_slot_repINS_18bound_mem_functor1IvN5Async10AudioMixerEPNS3_5TimerEEEE3dupEPv
libasyncaudio.so.1.6:_ZN4sigc8internal14typed_slot_repINS_18bound_mem_functor1IvN5Async10AudioMixerEPNS3_5TimerEEEE7destroyEPv
libasyncaudio.so.1.6:_ZN4sigc8internal14typed_slot_repINS_18bound_mem_functor1IvN5Async10AudioPacerEPNS3_5TimerEEEE3dupEPv
libasyncaudio.so.1.6:_ZN4sigc8internal14typed_slot_repINS_18bound_mem_functor1IvN5Async10AudioPacerEPNS3_5TimerEEEE7destroyEPv
libasyncaudio.so.1.6:_ZN4sigc8internal14typed_slot_repINS_18bound_mem_functor1IvN5Async14AudioDeviceOSSEPNS3_7FdWatchEEEE3dupEPv
libasyncaudio.so.1.6:_ZN4sigc8internal14typed_slot_repINS_18bound_mem_functor1IvN5Async14AudioDeviceOSSEPNS3_7FdWatchEEEE7destroyEPv
libasyncaudio.so.1.6:_ZN4sigc8internal14typed_slot_repINS_18bound_mem_functor1IvN5Async15AudioDeviceAlsa9AlsaWatchEPNS3_7FdWatchEEEE3dupEPv
libasyncaudio.so.1.6:_ZN4sigc8internal14typed_slot_repINS_18bound_mem_functor1IvN5Async15AudioDeviceAlsa9AlsaWatchEPNS3_7FdWatchEEEE7destroyEPv
libasyncaudio.so.1.6:_ZN4sigc8internal14typed_slot_repINS_18bound_mem_functor1IvN5Async7AudioIO23DelayedFlushAudioReaderEPNS3_5TimerEEEE3dupEPv
libasyncaudio.so.1.6:_ZN4sigc8internal14typed_slot_repINS_18bound_mem_functor1IvN5Async7AudioIO23DelayedFlushAudioReaderEPNS3_5TimerEEEE7destroyEPv
libasyncaudio.so.1.6:_ZN4sigc8internal14typed_slot_repINS_18bound_mem_functor2IvN5Async15AudioDeviceAlsaEPNS3_7FdWatchEtEEE3dupEPv
libasyncaudio.so.1.6:_ZN4sigc8internal14typed_slot_repINS_18bound_mem_functor2IvN5Async15AudioDeviceAlsaEPNS3_7FdWatchEtEEE7destroyEPv
libasyncaudio.so.1.6:_ZN4sigc8internal14typed_slot_repINS_18bound_mem_functor4IvN5Async14AudioDeviceUDPERKNS3_9IpAddressEtPviEEE3dupES8_
libasyncaudio.so.1.6:_ZN4sigc8internal14typed_slot_repINS_18bound_mem_functor4IvN5Async14AudioDeviceUDPERKNS3_9IpAddressEtPviEEE7destroyES8_
libasyncaudio.so.1.6:_ZN4sigc8internal9slot_callINS_12hide_functorILin1ENS_18bound_mem_functor0IvN5Async14AudioDeviceUDPEEEEEvJPNS4_5TimerEEE7call_itEPNS0_8slot_repERKS9_
libasyncaudio.so.1.6:_ZN4sigc8internal9slot_callINS_18bound_mem_functor1IvN5Async10AudioMixerEPNS3_5TimerEEEvJS6_EE7call_itEPNS0_8slot_repERKS6_
libasyncaudio.so.1.6:_ZN4sigc8internal9slot_callINS_18bound_mem_functor1IvN5Async10AudioPacerEPNS3_5TimerEEEvJS6_EE7call_itEPNS0_8slot_repERKS6_
libasyncaudio.so.1.6:_ZN4sigc8internal9slot_callINS_18bound_mem_functor1IvN5Async14AudioDeviceOSSEPNS3_7FdWatchEEEvJS6_EE7call_itEPNS0_8slot_repERKS6_
libasyncaudio.so.1.6:_ZN4sigc8internal9slot_callINS_18bound_mem_functor1IvN5Async15AudioDeviceAlsa9AlsaWatchEPNS3_7FdWatchEEEvJS7_EE7call_itEPNS0_8slot_repERKS7_
libasyncaudio.so.1.6:_ZN4sigc8internal9slot_callINS_18bound_mem_functor1IvN5Async7AudioIO23DelayedFlushAudioReaderEPNS3_5TimerEEEvJS7_EE7call_itEPNS0_8slot_repERKS7_
libasyncaudio.so.1.6:_ZN4sigc8internal9slot_callINS_18bound_mem_functor2IvN5Async15AudioDeviceAlsaEPNS3_7FdWatchEtEEvJS6_tEE7call_itEPNS0_8slot_repERKS6_RKt
libasyncaudio.so.1.6:_ZN4sigc8internal9slot_callINS_18bound_mem_functor4IvN5Async14AudioDeviceUDPERKNS3_9IpAddressEtPviEEvJS7_tS8_iEE7call_itEPNS0_8slot_repES7_RKtRKS8_RKi
libasyncaudio.so.1.6:_ZN5Async10AudioMixer10checkFlushEv
libasyncaudio.so.1.6:_ZN5Async10AudioMixer12flushSamplesEv
libasyncaudio.so.1.6:_ZN5Async10AudioMixer12resumeOutputEv
libasyncaudio.so.1.6:_ZN5Async10AudioMixer13outputHandlerEPNS_5TimerE
libasyncaudio.so.1.6:_ZN5Async10AudioMixer17allSamplesFlushedEv
libasyncaudio.so.1.6:_ZN5Async10AudioMixer17setAudioAvailableEv
libasyncaudio.so.1.6:_ZN5Async10AudioMixer9addSourceEPNS_11AudioSourceE
libasyncaudio.so.1.6:_ZN5Async10AudioMixerC1Ev
libasyncaudio.so.1.6:_ZN5Async10AudioMixerC2Ev
libasyncaudio.so.1.6:_ZN5Async10AudioMixerD0Ev
libasyncaudio.so.1.6:_ZN5Async10AudioMixerD1Ev
libasyncaudio.so.1.6:_ZN5Async10AudioMixerD2Ev
libasyncaudio.so.1.6:_ZN5Async10AudioPacer12flushSamplesEv
libasyncaudio.so.1.6:_ZN5Async10AudioPacer12resumeOutputEv
libasyncaudio.so.1.6:_ZN5Async10AudioPacer12writeSamplesEPKfi
libasyncaudio.so.1.6:_ZN5Async10AudioPacer15outputNextBlockEPNS_5TimerE
libasyncaudio.so.1.6:_ZN5Async10AudioPacer17allSamplesFlushedEv
libasyncaudio.so.1.6:_ZN5Async10AudioPacerC1Eiii
libasyncaudio.so.1.6:_ZN5Async10AudioPacerC2Eiii
libasyncaudio.so.1.6:_ZN5Async10AudioPacerD0Ev
libasyncaudio.so.1.6:_ZN5Async10AudioPacerD1Ev
libasyncaudio.so.1.6:_ZN5Async10AudioPacerD2Ev
libasyncaudio.so.1.6:_ZN5Async11AudioDevice15registerAudioIOERKNSt7__cxx1112basic_stringIcSt11char_traitsIcESaIcEEEPNS_7AudioIOE
libasyncaudio.so.1.6:_ZN5Async11AudioDevice17unregisterAudioIOEPNS_7AudioIOE
libasyncaudio.so.1.6:_ZN5Async11AudioDevice4openENS0_4ModeE
libasyncaudio.so.1.6:_ZN5Async11AudioDevice5closeEv
libasyncaudio.so.1.6:_ZN5Async11AudioDevice9getBlocksEPsi
libasyncaudio.so.1.6:_ZN5Async11AudioDevice9putBlocksEPsi
libasyncaudio.so.1.6:_ZN5Async11AudioDeviceC1ERKNSt7__cxx1112basic_stringIcSt11char_traitsIcESaIcEEE
libasyncaudio.so.1.6:_ZN5Async11AudioDeviceC2ERKNSt7__cxx1112basic_stringIcSt11char_traitsIcESaIcEEE
libasyncaudio.so.1.6:_ZN5Async11AudioDeviceD0Ev
libasyncaudio.so.1.6:_ZN5Async11AudioDeviceD1Ev
libasyncaudio.so.1.6:_ZN5Async11AudioDeviceD2Ev
libasyncaudio.so.1.6:_ZN5Async11AudioFilter12deleteFilterEv
libasyncaudio.so.1.6:_ZN5Async11AudioFilter13setOutputGainEf
libasyncaudio.so.1.6:_ZN5Async11AudioFilter14processSamplesEPfPKfi
libasyncaudio.so.1.6:_ZN5Async11AudioFilter15parseFilterSpecERKNSt7__cxx1112basic_stringIcSt11char_traitsIcESaIcEEE
libasyncaudio.so.1.6:_ZN5Async11AudioFilter5resetEv
libasyncaudio.so.1.6:_ZN5Async11AudioFilterC1ERKNSt7__cxx1112basic_stringIcSt11char_traitsIcESaIcEEEi
libasyncaudio.so.1.6:_ZN5Async11AudioFilterC1Ei
libasyncaudio.so.1.6:_ZN5Async11AudioFilterC2ERKNSt7__cxx1112basic_stringIcSt11char_traitsIcESaIcEEEi
libasyncaudio.so.1.6:_ZN5Async11AudioFilterC2Ei
libasyncaudio.so.1.6:_ZN5Async11AudioFilterD0Ev
libasyncaudio.so.1.6:_ZN5Async11AudioFilterD1Ev
libasyncaudio.so.1.6:_ZN5Async11AudioFilterD2Ev
libasyncaudio.so.1.6:_ZN5Async11AudioReader11readSamplesEPfi
libasyncaudio.so.1.6:_ZN5Async11AudioReader12flushSamplesEv
libasyncaudio.so.1.6:_ZN5Async11AudioReader12writeSamplesEPKfi
libasyncaudio.so.1.6:_ZN5Async11AudioReaderC1Ev
libasyncaudio.so.1.6:_ZN5Async11AudioReaderC2Ev
libasyncaudio.so.1.6:_ZN5Async11AudioReaderD0Ev
libasyncaudio.so.1.6:_ZN5Async11AudioReaderD1Ev
libasyncaudio.so.1.6:_ZN5Async11AudioReaderD2Ev
libasyncaudio.so.1.6:_ZN5Async11AudioSource10setHandlerEPS0_
libasyncaudio.so.1.6:_ZN5Async11AudioSource12clearHandlerEv
libasyncaudio.so.1.6:_ZN5Async11AudioSource12registerSinkEPNS_9AudioSinkEb
libasyncaudio.so.1.6:_ZN5Async11AudioSource14unregisterSinkEv
libasyncaudio.so.1.6:_ZN5Async11AudioSource16sinkFlushSamplesEv
libasyncaudio.so.1.6:_ZN5Async11AudioSource16sinkWriteSamplesEPKfi
libasyncaudio.so.1.6:_ZN5Async11AudioSource20registerSinkInternalEPNS_9AudioSinkEbb
libasyncaudio.so.1.6:_ZN5Async11AudioSource22unregisterSinkInternalEb
libasyncaudio.so.1.6:_ZN5Async11AudioSourceD0Ev
libasyncaudio.so.1.6:_ZN5Async11AudioSourceD1Ev
libasyncaudio.so.1.6:_ZN5Async11AudioSourceD2Ev
libasyncaudio.so.1.6:_ZN5Async12AudioDecoder11isAvailableERKNSt7__cxx1112basic_stringIcSt11char_traitsIcESaIcEEE
libasyncaudio.so.1.6:_ZN5Async12AudioDecoder6createERKNSt7__cxx1112basic_stringIcSt11char_traitsIcESaIcEEE
libasyncaudio.so.1.6:_ZN5Async12AudioEncoder11isAvailableERKNSt7__cxx1112basic_stringIcSt11char_traitsIcESaIcEEE
libasyncaudio.so.1.6:_ZN5Async12AudioEncoder6createERKNSt7__cxx1112basic_stringIcSt11char_traitsIcESaIcEEE
libasyncaudio.so.1.6:_ZN5Async13AudioRecorder10initializeEv
libasyncaudio.so.1.6:_ZN5Async13AudioRecorder12flushSamplesEv
libasyncaudio.so.1.6:_ZN5Async13AudioRecorder12writeSamplesEPKfi
libasyncaudio.so.1.6:_ZN5Async13AudioRecorder15store16bitValueEPct
libasyncaudio.so.1.6:_ZN5Async13AudioRecorder15store32bitValueEPcj
libasyncaudio.so.1.6:_ZN5Async13AudioRecorder15writeWaveHeaderEv
libasyncaudio.so.1.6:_ZN5Async13AudioRecorder18setErrMsgFromErrnoERKNSt7__cxx1112basic_stringIcSt11char_traitsIcESaIcEEE
libasyncaudio.so.1.6:_ZN5Async13AudioRecorder19setMaxRecordingTimeEjj
libasyncaudio.so.1.6:_ZN5Async13AudioRecorder9closeFileEv
libasyncaudio.so.1.6:_ZN5Async13AudioRecorderC1ERKNSt7__cxx1112basic_stringIcSt11char_traitsIcESaIcEEENS0_6FormatEi
libasyncaudio.so.1.6:_ZN5Async13AudioRecorderC2ERKNSt7__cxx1112basic_stringIcSt11char_traitsIcESaIcEEENS0_6FormatEi
libasyncaudio.so.1.6:_ZN5Async13AudioRecorderD0Ev
libasyncaudio.so.1.6:_ZN5Async13AudioRecorderD1Ev
libasyncaudio.so.1.6:_ZN5Async13AudioRecorderD2Ev
libasyncaudio.so.1.6:_ZN5Async13AudioSelector12removeSourceEPNS_11AudioSourceE
libasyncaudio.so.1.6:_ZN5Async13AudioSelector12resumeOutputEv
libasyncaudio.so.1.6:_ZN5Async13AudioSelector12selectBranchEPNS0_6BranchE
libasyncaudio.so.1.6:_ZN5Async13AudioSelector12selectSourceEPNS_11AudioSourceE
libasyncaudio.so.1.6:_ZN5Async13AudioSelector12setFlushWaitEPNS_11AudioSourceEb
libasyncaudio.so.1.6:_ZN5Async13AudioSelector16enableAutoSelectEPNS_11AudioSourceEi
libasyncaudio.so.1.6:_ZN5Async13AudioSelector16setSelectionPrioEPNS_11AudioSourceEi
libasyncaudio.so.1.6:_ZN5Async13AudioSelector17allSamplesFlushedEv
libasyncaudio.so.1.6:_ZN5Async13AudioSelector17disableAutoSelectEPNS_11AudioSourceE
libasyncaudio.so.1.6:_ZN5Async13AudioSelector18branchFlushSamplesEv
libasyncaudio.so.1.6:_ZN5Async13AudioSelector18branchWriteSamplesEPKfi
libasyncaudio.so.1.6:_ZN5Async13AudioSelector29selectHighestPrioActiveBranchEb
libasyncaudio.so.1.6:_ZN5Async13AudioSelector9addSourceEPNS_11AudioSourceE
libasyncaudio.so.1.6:_ZN5Async13AudioSelectorC1Ev
libasyncaudio.so.1.6:_ZN5Async13AudioSelectorC2Ev
libasyncaudio.so.1.6:_ZN5Async13AudioSelectorD0Ev
libasyncaudio.so.1.6:_ZN5Async13AudioSelectorD1Ev
libasyncaudio.so.1.6:_ZN5Async13AudioSelectorD2Ev
libasyncaudio.so.1.6:_ZN5Async13AudioSplitter10enableSinkEPNS_9AudioSinkEb
libasyncaudio.so.1.6:_ZN5Async13AudioSplitter10removeSinkEPNS_9AudioSinkE
libasyncaudio.so.1.6:_ZN5Async13AudioSplitter12flushSamplesEv
libasyncaudio.so.1.6:_ZN5Async13AudioSplitter12writeSamplesEPKfi
libasyncaudio.so.1.6:_ZN5Async13AudioSplitter14removeAllSinksEv
libasyncaudio.so.1.6:_ZN5Async13AudioSplitter15cleanupBranchesEv
libasyncaudio.so.1.6:_ZN5Async13AudioSplitter15writeFromBufferEv
libasyncaudio.so.1.6:_ZN5Async13AudioSplitter16flushAllBranchesEv
libasyncaudio.so.1.6:_ZN5Async13AudioSplitter18branchResumeOutputEv
libasyncaudio.so.1.6:_ZN5Async13AudioSplitter23branchAllSamplesFlushedEv
libasyncaudio.so.1.6:_ZN5Async13AudioSplitter7addSinkEPNS_9AudioSinkEb
libasyncaudio.so.1.6:_ZN5Async13AudioSplitterC1Ev
libasyncaudio.so.1.6:_ZN5Async13AudioSplitterC2Ev
libasyncaudio.so.1.6:_ZN5Async13AudioSplitterD0Ev
libasyncaudio.so.1.6:_ZN5Async13AudioSplitterD1Ev
libasyncaudio.so.1.6:_ZN5Async13AudioSplitterD2Ev
libasyncaudio.so.1.6:_ZN5Async14AudioDecimator14processSamplesEPfPKfi
libasyncaudio.so.1.6:_ZN5Async14AudioDecimatorC1EiPKfi
libasyncaudio.so.1.6:_ZN5Async14AudioDecimatorC2EiPKfi
libasyncaudio.so.1.6:_ZN5Async14AudioDecimatorD0Ev
libasyncaudio.so.1.6:_ZN5Async14AudioDecimatorD1Ev
libasyncaudio.so.1.6:_ZN5Async14AudioDecimatorD2Ev
libasyncaudio.so.1.6:_ZN5Async14AudioDelayLine11setFadeTimeEi
libasyncaudio.so.1.6:_ZN5Async14AudioDelayLine12flushSamplesEv
libasyncaudio.so.1.6:_ZN5Async14AudioDelayLine12resumeOutputEv
libasyncaudio.so.1.6:_ZN5Async14AudioDelayLine12writeSamplesEPKfi
libasyncaudio.so.1.6:_ZN5Async14AudioDelayLine17allSamplesFlushedEv
libasyncaudio.so.1.6:_ZN5Async14AudioDelayLine21writeRemainingSamplesEv
libasyncaudio.so.1.6:_ZN5Async14AudioDelayLine4muteEbi
libasyncaudio.so.1.6:_ZN5Async14AudioDelayLine5clearEi
libasyncaudio.so.1.6:_ZN5Async14AudioDelayLineC1Ei
libasyncaudio.so.1.6:_ZN5Async14AudioDelayLineC2Ei
libasyncaudio.so.1.6:_ZN5Async14AudioDelayLineD0Ev
libasyncaudio.so.1.6:_ZN5Async14AudioDelayLineD1Ev
libasyncaudio.so.1.6:_ZN5Async14AudioDelayLineD2Ev
libasyncaudio.so.1.6:_ZN5Async14AudioDeviceOSS10openDeviceENS_11AudioDevice4ModeE
libasyncaudio.so.1.6:_ZN5Async14AudioDeviceOSS11closeDeviceEv
libasyncaudio.so.1.6:_ZN5Async14AudioDeviceOSS12flushSamplesEv
libasyncaudio.so.1.6:_ZN5Async14AudioDeviceOSS13readBlocksizeEv
libasyncaudio.so.1.6:_ZN5Async14AudioDeviceOSS14writeBlocksizeEv
libasyncaudio.so.1.6:_ZN5Async14AudioDeviceOSS16audioReadHandlerEPNS_7FdWatchE
libasyncaudio.so.1.6:_ZN5Async14AudioDeviceOSS19isFullDuplexCapableEv
libasyncaudio.so.1.6:_ZN5Async14AudioDeviceOSS19writeSpaceAvailableEPNS_7FdWatchE
libasyncaudio.so.1.6:_ZN5Async14AudioDeviceOSS21audioToWriteAvailableEv
libasyncaudio.so.1.6:_ZN5Async14AudioDeviceOSSC1ERKNSt7__cxx1112basic_stringIcSt11char_traitsIcESaIcEEE
libasyncaudio.so.1.6:_ZN5Async14AudioDeviceOSSC2ERKNSt7__cxx1112basic_stringIcSt11char_traitsIcESaIcEEE
libasyncaudio.so.1.6:_ZN5Async14AudioDeviceOSSD0Ev
libasyncaudio.so.1.6:_ZN5Async14AudioDeviceOSSD1Ev
libasyncaudio.so.1.6:_ZN5Async14AudioDeviceOSSD2Ev
libasyncaudio.so.1.6:_ZN5Async14AudioDeviceUDP10openDeviceENS_11AudioDevice4ModeE
libasyncaudio.so.1.6:_ZN5Async14AudioDeviceUDP11closeDeviceEv
libasyncaudio.so.1.6:_ZN5Async14AudioDeviceUDP12flushSamplesEv
libasyncaudio.so.1.6:_ZN5Async14AudioDeviceUDP13readBlocksizeEv
libasyncaudio.so.1.6:_ZN5Async14AudioDeviceUDP14writeBlocksizeEv
libasyncaudio.so.1.6:_ZN5Async14AudioDeviceUDP16audioReadHandlerERKNS_9IpAddressEtPvi
libasyncaudio.so.1.6:_ZN5Async14AudioDeviceUDP17audioWriteHandlerEv
libasyncaudio.so.1.6:_ZN5Async14AudioDeviceUDP19isFullDuplexCapableEv
libasyncaudio.so.1.6:_ZN5Async14AudioDeviceUDP21audioToWriteAvailableEv
libasyncaudio.so.1.6:_ZN5Async14AudioDeviceUDPC1ERKNSt7__cxx1112basic_stringIcSt11char_traitsIcESaIcEEE
libasyncaudio.so.1.6:_ZN5Async14AudioDeviceUDPC2ERKNSt7__cxx1112basic_stringIcSt11char_traitsIcESaIcEEE
libasyncaudio.so.1.6:_ZN5Async14AudioDeviceUDPD0Ev
libasyncaudio.so.1.6:_ZN5Async14AudioDeviceUDPD1Ev
libasyncaudio.so.1.6:_ZN5Async14AudioDeviceUDPD2Ev
libasyncaudio.so.1.6:_ZN5Async14AudioProcessor12flushSamplesEv
libasyncaudio.so.1.6:_ZN5Async14AudioProcessor12resumeOutputEv
libasyncaudio.so.1.6:_ZN5Async14AudioProcessor12writeFromBufEv
libasyncaudio.so.1.6:_ZN5Async14AudioProcessor12writeSamplesEPKfi
libasyncaudio.so.1.6:_ZN5Async14AudioProcessor17allSamplesFlushedEv
libasyncaudio.so.1.6:_ZN5Async14AudioProcessor24setInputOutputSampleRateEii
libasyncaudio.so.1.6:_ZN5Async14AudioProcessorC1Ev
libasyncaudio.so.1.6:_ZN5Async14AudioProcessorC2Ev
libasyncaudio.so.1.6:_ZN5Async14AudioProcessorD0Ev
libasyncaudio.so.1.6:_ZN5Async14AudioProcessorD1Ev
libasyncaudio.so.1.6:_ZN5Async14AudioProcessorD2Ev
libasyncaudio.so.1.6:_ZN5Async15AudioCompressor13setOutputGainEf
libasyncaudio.so.1.6:_ZN5Async15AudioCompressor14processSamplesEPfPKfi
libasyncaudio.so.1.6:_ZN5Async15AudioCompressor5resetEv
libasyncaudio.so.1.6:_ZN5Async15AudioCompressorC1Ev
libasyncaudio.so.1.6:_ZN5Async15AudioCompressorC2Ev
libasyncaudio.so.1.6:_ZN5Async15AudioCompressorD0Ev
libasyncaudio.so.1.6:_ZN5Async15AudioCompressorD1Ev
libasyncaudio.so.1.6:_ZN5Async15AudioCompressorD2Ev
libasyncaudio.so.1.6:_ZN5Async15AudioDecoderGsm19writeEncodedSamplesEPvi
libasyncaudio.so.1.6:_ZN5Async15AudioDecoderGsmC1Ev
libasyncaudio.so.1.6:_ZN5Async15AudioDecoderGsmC2Ev
libasyncaudio.so.1.6:_ZN5Async15AudioDecoderGsmD0Ev
libasyncaudio.so.1.6:_ZN5Async15AudioDecoderGsmD1Ev
libasyncaudio.so.1.6:_ZN5Async15AudioDecoderGsmD2Ev
libasyncaudio.so.1.6:_ZN5Async15AudioDecoderS1619writeEncodedSamplesEPvi
libasyncaudio.so.1.6:_ZN5Async15AudioDecoderS16C1Ev
libasyncaudio.so.1.6:_ZN5Async15AudioDecoderS16C2Ev
libasyncaudio.so.1.6:_ZN5Async15AudioDecoderS16D0Ev
libasyncaudio.so.1.6:_ZN5Async15AudioDecoderS16D1Ev
libasyncaudio.so.1.6:_ZN5Async15AudioDecoderS16D2Ev
libasyncaudio.so.1.6:_ZN5Async15AudioDeviceAlsa10initParamsEP8_snd_pcm
libasyncaudio.so.1.6:_ZN5Async15AudioDeviceAlsa10openDeviceENS_11AudioDevice4ModeE
libasyncaudio.so.1.6:_ZN5Async15AudioDeviceAlsa11closeDeviceEv
libasyncaudio.so.1.6:_ZN5Async15AudioDeviceAlsa12flushSamplesEv
libasyncaudio.so.1.6:_ZN5Async15AudioDeviceAlsa12startCaptureEP8_snd_pcm
libasyncaudio.so.1.6:_ZN5Async15AudioDeviceAlsa13readBlocksizeEv
libasyncaudio.so.1.6:_ZN5Async15AudioDeviceAlsa13startPlaybackEP8_snd_pcm
libasyncaudio.so.1.6:_ZN5Async15AudioDeviceAlsa14writeBlocksizeEv
libasyncaudio.so.1.6:_ZN5Async15AudioDeviceAlsa16audioReadHandlerEPNS_7FdWatchEt
libasyncaudio.so.1.6:_ZN5Async15AudioDeviceAlsa18getBlockAttributesEP8_snd_pcmRiS3_
libasyncaudio.so.1.6:_ZN5Async15AudioDeviceAlsa19isFullDuplexCapableEv
libasyncaudio.so.1.6:_ZN5Async15AudioDeviceAlsa19writeSpaceAvailableEPNS_7FdWatchEt
libasyncaudio.so.1.6:_ZN5Async15AudioDeviceAlsa21audioToWriteAvailableEv
libasyncaudio.so.1.6:_ZN5Async15AudioDeviceAlsa9AlsaWatch10writeEventEPNS_7FdWatchE
libasyncaudio.so.1.6:_ZN5Async15AudioDeviceAlsa9AlsaWatch9readEventEPNS_7FdWatchE
libasyncaudio.so.1.6:_ZN5Async15AudioDeviceAlsaC1ERKNSt7__cxx1112basic_stringIcSt11char_traitsIcESaIcEEE
libasyncaudio.so.1.6:_ZN5Async15AudioDeviceAlsaC2ERKNSt7__cxx1112basic_stringIcSt11char_traitsIcESaIcEEE
libasyncaudio.so.1.6:_ZN5Async15AudioDeviceAlsaD0Ev
libasyncaudio.so.1.6:_ZN5Async15AudioDeviceAlsaD1Ev
libasyncaudio.so.1.6:_ZN5Async15AudioDeviceAlsaD2Ev
libasyncaudio.so.1.6:_ZN5Async15AudioEncoderGsm12writeSamplesEPKfi
libasyncaudio.so.1.6:_ZN5Async15AudioEncoderGsmC1Ev
libasyncaudio.so.1.6:_ZN5Async15AudioEncoderGsmC2Ev
libasyncaudio.so.1.6:_ZN5Async15AudioEncoderGsmD0Ev
libasyncaudio.so.1.6:_ZN5Async15AudioEncoderGsmD1Ev
libasyncaudio.so.1.6:_ZN5Async15AudioEncoderGsmD2Ev
libasyncaudio.so.1.6:_ZN5Async15AudioEncoderS1612writeSamplesEPKfi
libasyncaudio.so.1.6:_ZN5Async15AudioJitterFifo12flushSamplesEv
libasyncaudio.so.1.6:_ZN5Async15AudioJitterFifo12resumeOutputEv
libasyncaudio.so.1.6:_ZN5Async15AudioJitterFifo12writeSamplesEPKfi
libasyncaudio.so.1.6:_ZN5Async15AudioJitterFifo17allSamplesFlushedEv
libasyncaudio.so.1.6:_ZN5Async15AudioJitterFifo20writeSamplesFromFifoEv
libasyncaudio.so.1.6:_ZN5Async15AudioJitterFifo5clearEv
libasyncaudio.so.1.6:_ZN5Async15AudioJitterFifo7setSizeEj
libasyncaudio.so.1.6:_ZN5Async15AudioJitterFifoC1Ej
libasyncaudio.so.1.6:_ZN5Async15AudioJitterFifoC2Ej
libasyncaudio.so.1.6:_ZN5Async15AudioJitterFifoD0Ev
libasyncaudio.so.1.6:_ZN5Async15AudioJitterFifoD1Ev
libasyncaudio.so.1.6:_ZN5Async15AudioJitterFifoD2Ev
libasyncaudio.so.1.6:_ZN5Async15AudioNoiseAdder14processSamplesEPfPKfi
libasyncaudio.so.1.6:_ZN5Async15AudioNoiseAdder21generateGaussianNoiseEv
libasyncaudio.so.1.6:_ZN5Async15AudioNoiseAdderC1Ef
libasyncaudio.so.1.6:_ZN5Async15AudioNoiseAdderC2Ef
libasyncaudio.so.1.6:_ZN5Async15AudioNoiseAdderD0Ev
libasyncaudio.so.1.6:_ZN5Async15AudioNoiseAdderD1Ev
libasyncaudio.so.1.6:_ZN5Async15AudioNoiseAdderD2Ev
libasyncaudio.so.1.6:_ZN5Async16AudioDecoderOpus19writeEncodedSamplesEPvi
libasyncaudio.so.1.6:_ZN5Async16AudioDecoderOpus5resetEv
libasyncaudio.so.1.6:_ZN5Async16AudioDecoderOpus7setGainEf
libasyncaudio.so.1.6:_ZN5Async16AudioDecoderOpus9setOptionERKNSt7__cxx1112basic_stringIcSt11char_traitsIcESaIcEEES8_
libasyncaudio.so.1.6:_ZN5Async16AudioDecoderOpusC1Ev
libasyncaudio.so.1.6:_ZN5Async16AudioDecoderOpusC2Ev
libasyncaudio.so.1.6:_ZN5Async16AudioDecoderOpusD0Ev
libasyncaudio.so.1.6:_ZN5Async16AudioDecoderOpusD1Ev
libasyncaudio.so.1.6:_ZN5Async16AudioDecoderOpusD2Ev
libasyncaudio.so.1.6:_ZN5Async16AudioEncoderOpus10complexityEv
libasyncaudio.so.1.6:_ZN5Async16AudioEncoderOpus10dtxEnabledEv
libasyncaudio.so.1.6:_ZN5Async16AudioEncoderOpus10setBitrateEi
libasyncaudio.so.1.6:_ZN5Async16AudioEncoderOpus10signalTypeEv
libasyncaudio.so.1.6:_ZN5Async16AudioEncoderOpus10vbrEnabledEv
libasyncaudio.so.1.6:_ZN5Async16AudioEncoderOpus11setLsbDepthEi
libasyncaudio.so.1.6:_ZN5Async16AudioEncoderOpus12bandwidthStrEi
libasyncaudio.so.1.6:_ZN5Async16AudioEncoderOpus12maxBandwidthEv
libasyncaudio.so.1.6:_ZN5Async16AudioEncoderOpus12setBandwidthEi
libasyncaudio.so.1.6:_ZN5Async16AudioEncoderOpus12setFrameSizeEf
libasyncaudio.so.1.6:_ZN5Async16AudioEncoderOpus12writeSamplesEPKfi
libasyncaudio.so.1.6:_ZN5Async16AudioEncoderOpus13setComplexityEi
libasyncaudio.so.1.6:_ZN5Async16AudioEncoderOpus13setSignalTypeEi
libasyncaudio.so.1.6:_ZN5Async16AudioEncoderOpus13signalTypeStrEi
libasyncaudio.so.1.6:_ZN5Async16AudioEncoderOpus15applicationTypeEv
libasyncaudio.so.1.6:_ZN5Async16AudioEncoderOpus15enableInbandFecEb
libasyncaudio.so.1.6:_ZN5Async16AudioEncoderOpus15setMaxBandwidthEi
libasyncaudio.so.1.6:_ZN5Async16AudioEncoderOpus16inbandFecEnabledEv
libasyncaudio.so.1.6:_ZN5Async16AudioEncoderOpus16printCodecParamsEv
libasyncaudio.so.1.6:_ZN5Async16AudioEncoderOpus18applicationTypeStrEi
libasyncaudio.so.1.6:_ZN5Async16AudioEncoderOpus18expectedPacketLossEv
libasyncaudio.so.1.6:_ZN5Async16AudioEncoderOpus18setApplicationTypeEi
libasyncaudio.so.1.6:_ZN5Async16AudioEncoderOpus20enableConstrainedVbrEb
libasyncaudio.so.1.6:_ZN5Async16AudioEncoderOpus21constrainedVbrEnabledEv
libasyncaudio.so.1.6:_ZN5Async16AudioEncoderOpus21setExpectedPacketLossEi
libasyncaudio.so.1.6:_ZN5Async16AudioEncoderOpus5resetEv
libasyncaudio.so.1.6:_ZN5Async16AudioEncoderOpus7bitrateEv
libasyncaudio.so.1.6:_ZN5Async16AudioEncoderOpus8lsbDepthEv
libasyncaudio.so.1.6:_ZN5Async16AudioEncoderOpus9bandwidthEv
libasyncaudio.so.1.6:_ZN5Async16AudioEncoderOpus9enableDtxEb
libasyncaudio.so.1.6:_ZN5Async16AudioEncoderOpus9enableVbrEb
libasyncaudio.so.1.6:_ZN5Async16AudioEncoderOpus9setOptionERKNSt7__cxx1112basic_stringIcSt11char_traitsIcESaIcEEES8_
libasyncaudio.so.1.6:_ZN5Async16AudioEncoderOpusC1Ev
libasyncaudio.so.1.6:_ZN5Async16AudioEncoderOpusC2Ev
libasyncaudio.so.1.6:_ZN5Async16AudioEncoderOpusD0Ev
libasyncaudio.so.1.6:_ZN5Async16AudioEncoderOpusD1Ev
libasyncaudio.so.1.6:_ZN5Async16AudioEncoderOpusD2Ev
libasyncaudio.so.1.6:_ZN5Async17AudioDecoderSpeex14enableEnhancerEb
libasyncaudio.so.1.6:_ZN5Async17AudioDecoderSpeex19writeEncodedSamplesEPvi
libasyncaudio.so.1.6:_ZN5Async17AudioDecoderSpeex9setOptionERKNSt7__cxx1112basic_stringIcSt11char_traitsIcESaIcEEES8_
libasyncaudio.so.1.6:_ZN5Async17AudioDecoderSpeexC1Ev
libasyncaudio.so.1.6:_ZN5Async17AudioDecoderSpeexC2Ev
libasyncaudio.so.1.6:_ZN5Async17AudioDecoderSpeexD0Ev
libasyncaudio.so.1.6:_ZN5Async17AudioDecoderSpeexD1Ev
libasyncaudio.so.1.6:_ZN5Async17AudioDecoderSpeexD2Ev
libasyncaudio.so.1.6:_ZN5Async17AudioEncoderSpeex10complexityEv
libasyncaudio.so.1.6:_ZN5Async17AudioEncoderSpeex10setBitrateEi
libasyncaudio.so.1.6:_ZN5Async17AudioEncoderSpeex10setQualityEi
libasyncaudio.so.1.6:_ZN5Async17AudioEncoderSpeex10vbrEnabledEv
libasyncaudio.so.1.6:_ZN5Async17AudioEncoderSpeex10vbrQualityEv
libasyncaudio.so.1.6:_ZN5Async17AudioEncoderSpeex12writeSamplesEPKfi
libasyncaudio.so.1.6:_ZN5Async17AudioEncoderSpeex13setComplexityEi
libasyncaudio.so.1.6:_ZN5Async17AudioEncoderSpeex13setVbrQualityEi
libasyncaudio.so.1.6:_ZN5Async17AudioEncoderSpeex16printCodecParamsEv
libasyncaudio.so.1.6:_ZN5Async17AudioEncoderSpeex18setFramesPerPacketEj
libasyncaudio.so.1.6:_ZN5Async17AudioEncoderSpeex3abrEv
libasyncaudio.so.1.6:_ZN5Async17AudioEncoderSpeex6setAbrEi
libasyncaudio.so.1.6:_ZN5Async17AudioEncoderSpeex7bitrateEv
libasyncaudio.so.1.6:_ZN5Async17AudioEncoderSpeex9enableVbrEb
libasyncaudio.so.1.6:_ZN5Async17AudioEncoderSpeex9setOptionERKNSt7__cxx1112basic_stringIcSt11char_traitsIcESaIcEEES8_
libasyncaudio.so.1.6:_ZN5Async17AudioEncoderSpeexC1Ev
libasyncaudio.so.1.6:_ZN5Async17AudioEncoderSpeexC2Ev
libasyncaudio.so.1.6:_ZN5Async17AudioEncoderSpeexD0Ev
libasyncaudio.so.1.6:_ZN5Async17AudioEncoderSpeexD1Ev
libasyncaudio.so.1.6:_ZN5Async17AudioEncoderSpeexD2Ev
libasyncaudio.so.1.6:_ZN5Async17AudioInterpolator14processSamplesEPfPKfi
libasyncaudio.so.1.6:_ZN5Async17AudioInterpolatorC1EiPKfi
libasyncaudio.so.1.6:_ZN5Async17AudioInterpolatorC2EiPKfi
libasyncaudio.so.1.6:_ZN5Async17AudioInterpolatorD0Ev
libasyncaudio.so.1.6:_ZN5Async17AudioInterpolatorD1Ev
libasyncaudio.so.1.6:_ZN5Async17AudioInterpolatorD2Ev
libasyncaudio.so.1.6:_ZN5Async18AudioDeviceFactory15registerCreatorERKNSt7__cxx1112basic_stringIcSt11char_traitsIcESaIcEEEPFPNS_11AudioDeviceES8_E
libasyncaudio.so.1.6:_ZN5Async18AudioDeviceFactory6createERKNSt7__cxx1112basic_stringIcSt11char_traitsIcESaIcEEES8_
libasyncaudio.so.1.6:_ZN5Async18AudioDeviceFactoryC1Ev
libasyncaudio.so.1.6:_ZN5Async18AudioDeviceFactoryC2Ev
libasyncaudio.so.1.6:_ZN5Async18AudioDeviceFactoryD1Ev
libasyncaudio.so.1.6:_ZN5Async18AudioDeviceFactoryD2Ev
libasyncaudio.so.1.6:_ZN5Async7AudioIO11readSamplesEPfi
libasyncaudio.so.1.6:_ZN5Async7AudioIO11setChannelsEi
libasyncaudio.so.1.6:_ZN5Async7AudioIO12setBlocksizeEi
libasyncaudio.so.1.6:_ZN5Async7AudioIO13readBlocksizeEv
libasyncaudio.so.1.6:_ZN5Async7AudioIO13setBlockCountEi
libasyncaudio.so.1.6:_ZN5Async7AudioIO13setSampleRateEi
libasyncaudio.so.1.6:_ZN5Async7AudioIO14writeBlocksizeEv
libasyncaudio.so.1.6:_ZN5Async7AudioIO16samplesAvailableEv
libasyncaudio.so.1.6:_ZN5Async7AudioIO19isFullDuplexCapableEv
libasyncaudio.so.1.6:_ZN5Async7AudioIO23DelayedFlushAudioReader9flushDoneEPNS_5TimerE
libasyncaudio.so.1.6:_ZN5Async7AudioIO4openENS0_4ModeE
libasyncaudio.so.1.6:_ZN5Async7AudioIO5closeEv
libasyncaudio.so.1.6:_ZN5Async7AudioIO9audioReadEPfi
libasyncaudio.so.1.6:_ZN5Async7AudioIOC1ERKNSt7__cxx1112basic_stringIcSt11char_traitsIcESaIcEEEi
libasyncaudio.so.1.6:_ZN5Async7AudioIOC2ERKNSt7__cxx1112basic_stringIcSt11char_traitsIcESaIcEEEi
libasyncaudio.so.1.6:_ZN5Async7AudioIOD0Ev
libasyncaudio.so.1.6:_ZN5Async7AudioIOD1Ev
libasyncaudio.so.1.6:_ZN5Async7AudioIOD2Ev
libasyncaudio.so.1.6:_ZN5Async8AudioFsf14processSamplesEPfPKfi
libasyncaudio.so.1.6:_ZN5Async8AudioFsfC1EmPKff
libasyncaudio.so.1.6:_ZN5Async8AudioFsfC2EmPKff
libasyncaudio.so.1.6:_ZN5Async8AudioFsfD0Ev
libasyncaudio.so.1.6:_ZN5Async8AudioFsfD1Ev
libasyncaudio.so.1.6:_ZN5Async8AudioFsfD2Ev
libasyncaudio.so.1.6:_ZN5Async9AudioFifo12flushSamplesEv
libasyncaudio.so.1.6:_ZN5Async9AudioFifo12resumeOutputEv
libasyncaudio.so.1.6:_ZN5Async9AudioFifo12writeSamplesEPKfi
libasyncaudio.so.1.6:_ZN5Async9AudioFifo15enableBufferingEb
libasyncaudio.so.1.6:_ZN5Async9AudioFifo16setPrebufSamplesEj
libasyncaudio.so.1.6:_ZN5Async9AudioFifo17allSamplesFlushedEv
libasyncaudio.so.1.6:_ZN5Async9AudioFifo20writeSamplesFromFifoEv
libasyncaudio.so.1.6:_ZN5Async9AudioFifo5clearEv
libasyncaudio.so.1.6:_ZN5Async9AudioFifo7setSizeEj
libasyncaudio.so.1.6:_ZN5Async9AudioFifoC1Ej
libasyncaudio.so.1.6:_ZN5Async9AudioFifoC2Ej
libasyncaudio.so.1.6:_ZN5Async9AudioFifoD0Ev
libasyncaudio.so.1.6:_ZN5Async9AudioFifoD1Ev
libasyncaudio.so.1.6:_ZN5Async9AudioFifoD2Ev
libasyncaudio.so.1.6:_ZN5Async9AudioSink10setHandlerEPS0_
libasyncaudio.so.1.6:_ZN5Async9AudioSink12clearHandlerEv
libasyncaudio.so.1.6:_ZN5Async9AudioSink14registerSourceEPNS_11AudioSourceE
libasyncaudio.so.1.6:_ZN5Async9AudioSink16unregisterSourceEv
libasyncaudio.so.1.6:_ZN5Async9AudioSink18sourceResumeOutputEv
libasyncaudio.so.1.6:_ZN5Async9AudioSink22registerSourceInternalEPNS_11AudioSourceEb
libasyncaudio.so.1.6:_ZN5Async9AudioSink23sourceAllSamplesFlushedEv
libasyncaudio.so.1.6:_ZN5Async9AudioSinkD0Ev
libasyncaudio.so.1.6:_ZN5Async9AudioSinkD1Ev
libasyncaudio.so.1.6:_ZN5Async9AudioSinkD2Ev
libasyncaudio.so.1.6:_ZNK5Async13AudioSelector17autoSelectEnabledEPNS_11AudioSourceE
libasyncaudio.so.1.6:_ZNK5Async14AudioDeviceOSS14samplesToWriteEv
libasyncaudio.so.1.6:_ZNK5Async14AudioDeviceUDP14samplesToWriteEv
libasyncaudio.so.1.6:_ZNK5Async15AudioDeviceAlsa14samplesToWriteEv
libasyncaudio.so.1.6:_ZNK5Async15AudioJitterFifo13samplesInFifoEv
libasyncaudio.so.1.6:_ZNK5Async16AudioDecoderOpus16printCodecParamsEv
libasyncaudio.so.1.6:_ZNK5Async16AudioDecoderOpus4gainEv
libasyncaudio.so.1.6:_ZNK5Async17AudioDecoderSpeex15enhancerEnabledEv
libasyncaudio.so.1.6:_ZNK5Async17AudioDecoderSpeex16printCodecParamsEv
libasyncaudio.so.1.6:_ZNK5Async18AudioDeviceFactory13validDevTypesB5cxx11Ev
libasyncaudio.so.1.6:_ZNK5Async7AudioIO6isIdleEv
libasyncaudio.so.1.6:_ZNK5Async7AudioIO7doFlushEv
libasyncaudio.so.1.6:_ZNK5Async9AudioFifo13samplesInFifoEb
libasyncaudio.so.1.6:_ZThn32_N5Async10AudioPacer12resumeOutputEv
libasyncaudio.so.1.6:_ZThn32_N5Async10AudioPacer17allSamplesFlushedEv
libasyncaudio.so.1.6:_ZThn32_N5Async10AudioPacerD0Ev
libasyncaudio.so.1.6:_ZThn32_N5Async10AudioPacerD1Ev
libasyncaudio.so.1.6:_ZThn32_N5Async11AudioFilterD0Ev
libasyncaudio.so.1.6:_ZThn32_N5Async11AudioFilterD1Ev
libasyncaudio.so.1.6:_ZThn32_N5Async13AudioSplitterD0Ev
libasyncaudio.so.1.6:_ZThn32_N5Async13AudioSplitterD1Ev
libasyncaudio.so.1.6:_ZThn32_N5Async14AudioDecimatorD0Ev
libasyncaudio.so.1.6:_ZThn32_N5Async14AudioDecimatorD1Ev
libasyncaudio.so.1.6:_ZThn32_N5Async14AudioDelayLine12resumeOutputEv
libasyncaudio.so.1.6:_ZThn32_N5Async14AudioDelayLine17allSamplesFlushedEv
libasyncaudio.so.1.6:_ZThn32_N5Async14AudioDelayLineD0Ev
libasyncaudio.so.1.6:_ZThn32_N5Async14AudioDelayLineD1Ev
libasyncaudio.so.1.6:_ZThn32_N5Async14AudioProcessor12resumeOutputEv
libasyncaudio.so.1.6:_ZThn32_N5Async14AudioProcessor17allSamplesFlushedEv
libasyncaudio.so.1.6:_ZThn32_N5Async14AudioProcessorD0Ev
libasyncaudio.so.1.6:_ZThn32_N5Async14AudioProcessorD1Ev
libasyncaudio.so.1.6:_ZThn32_N5Async15AudioCompressorD0Ev
libasyncaudio.so.1.6:_ZThn32_N5Async15AudioCompressorD1Ev
libasyncaudio.so.1.6:_ZThn32_N5Async15AudioJitterFifo12resumeOutputEv
libasyncaudio.so.1.6:_ZThn32_N5Async15AudioJitterFifo17allSamplesFlushedEv
libasyncaudio.so.1.6:_ZThn32_N5Async15AudioJitterFifoD0Ev
libasyncaudio.so.1.6:_ZThn32_N5Async15AudioJitterFifoD1Ev
libasyncaudio.so.1.6:_ZThn32_N5Async15AudioNoiseAdderD0Ev
libasyncaudio.so.1.6:_ZThn32_N5Async15AudioNoiseAdderD1Ev
libasyncaudio.so.1.6:_ZThn32_N5Async17AudioInterpolatorD0Ev
libasyncaudio.so.1.6:_ZThn32_N5Async17AudioInterpolatorD1Ev
libasyncaudio.so.1.6:_ZThn32_N5Async8AudioFsfD0Ev
libasyncaudio.so.1.6:_ZThn32_N5Async8AudioFsfD1Ev
libasyncaudio.so.1.6:_ZThn32_N5Async9AudioFifo12resumeOutputEv
libasyncaudio.so.1.6:_ZThn32_N5Async9AudioFifo17allSamplesFlushedEv
libasyncaudio.so.1.6:_ZThn32_N5Async9AudioFifoD0Ev
libasyncaudio.so.1.6:_ZThn32_N5Async9AudioFifoD1Ev
libasyncaudio.so.1.6:_ZThn40_N5Async7AudioIOD0Ev
libasyncaudio.so.1.6:_ZThn40_N5Async7AudioIOD1Ev
libasyncaudio.so.1.6:fid_calc_delay
libasyncaudio.so.1.6:fid_cat
libasyncaudio.so.1.6:fid_cv_array
libasyncaudio.so.1.6:fid_design
libasyncaudio.so.1.6:fid_design_coef
libasyncaudio.so.1.6:fid_flatten
libasyncaudio.so.1.6:fid_list_filters
libasyncaudio.so.1.6:fid_list_filters_buf
libasyncaudio.so.1.6:fid_parse
libasyncaudio.so.1.6:fid_response
libasyncaudio.so.1.6:fid_response_pha
libasyncaudio.so.1.6:fid_rewrite_spec
libasyncaudio.so.1.6:fid_run_bufsize
libasyncaudio.so.1.6:fid_run_free
libasyncaudio.so.1.6:fid_run_freebuf
libasyncaudio.so.1.6:fid_run_initbuf
libasyncaudio.so.1.6:fid_run_new
libasyncaudio.so.1.6:fid_run_newbuf
libasyncaudio.so.1.6:fid_run_zapbuf
libasyncaudio.so.1.6:fid_set_error_handler
libasyncaudio.so.1.6:fid_version
libasynccore.so.1.6:_ZN4sigc8internal10slot_call0INS_12bind_functorILin1ENS_16pointer_functor1IPN5Async13TcpConnectionEvEES6_NS_3nilES8_S8_S8_S8_S8_EEvE7call_itEPNS0_8slot_repE
libasynccore.so.1.6:_ZN4sigc8internal10slot_call0INS_12bind_functorILin1EPFvPN5Async9DnsLookupEES5_NS_3nilES8_S8_S8_S8_S8_EEvE7call_itEPNS0_8slot_repE
libasynccore.so.1.6:_ZN4sigc8internal14typed_slot_repINS_12bind_functorILin1ENS_16pointer_functor1IPN5Async13TcpConnectionEvEES6_NS_3nilES8_S8_S8_S8_S8_EEE3dupEPv
libasynccore.so.1.6:_ZN4sigc8internal14typed_slot_repINS_12bind_functorILin1ENS_16pointer_functor1IPN5Async13TcpConnectionEvEES6_NS_3nilES8_S8_S8_S8_S8_EEE7destroyEPv
libasynccore.so.1.6:_ZN4sigc8internal14typed_slot_repINS_12bind_functorILin1EPFvPN5Async9DnsLookupEES5_NS_3nilES8_S8_S8_S8_S8_EEE3dupEPv
libasynccore.so.1.6:_ZN4sigc8internal14typed_slot_repINS_12bind_functorILin1EPFvPN5Async9DnsLookupEES5_NS_3nilES8_S8_S8_S8_S8_EEE7destroyEPv
libasynccore.so.1.6:_ZN4sigc8internal14typed_slot_repINS_12hide_functorILin1ENS_16pointer_functor0IvEEEEE3dupEPv
libasynccore.so.1.6:_ZN4sigc8internal14typed_slot_repINS_12hide_functorILin1ENS_16pointer_functor0IvEEEEE7destroyEPv
libasynccore.so.1.6:_ZN4sigc8internal14typed_slot_repINS_12hide_functorILin1ENS_18bound_mem_functor0IvN5Async11ApplicationEEEEEE3dupEPv
libasynccore.so.1.6:_ZN4sigc8internal14typed_slot_repINS_12hide_functorILin1ENS_18bound_mem_functor0IvN5Async11ApplicationEEEEEE7destroyEPv
libasynccore.so.1.6:_ZN4sigc8internal14typed_slot_repINS_12hide_functorILin1ENS_18bound_mem_functor0IvN5Async3PtyEEEEEE3dupEPv
libasynccore.so.1.6:_ZN4sigc8internal14typed_slot_repINS_12hide_functorILin1ENS_18bound_mem_functor0IvN5Async3PtyEEEEEE7destroyEPv
libasynccore.so.1.6:_ZN4sigc8internal14typed_slot_repINS_12hide_functorILin1ENS_18bound_mem_functor0IvN5Async4ExecEEEEEE3dupEPv
libasynccore.so.1.6:_ZN4sigc8internal14typed_slot_repINS_12hide_functorILin1ENS_18bound_mem_functor0IvN5Async4ExecEEEEEE7destroyEPv
libasynccore.so.1.6:_ZN4sigc8internal14typed_slot_repINS_18bound_mem_functor0IvN5Async9DnsLookupEEEE3dupEPv
libasynccore.so.1.6:_ZN4sigc8internal14typed_slot_repINS_18bound_mem_functor0IvN5Async9DnsLookupEEEE7destroyEPv
libasynccore.so.1.6:_ZN4sigc8internal14typed_slot_repINS_18bound_mem_functor1IvN5Async10FileReaderEPNS3_7FdWatchEEEE3dupEPv
libasynccore.so.1.6:_ZN4sigc8internal14typed_slot_repINS_18bound_mem_functor1IvN5Async10FileReaderEPNS3_7FdWatchEEEE7destroyEPv
libasynccore.so.1.6:_ZN4sigc8internal14typed_slot_repINS_18bound_mem_functor1IvN5Async12SerialDeviceEPNS3_7FdWatchEEEE3dupEPv
libasynccore.so.1.6:_ZN4sigc8internal14typed_slot_repINS_18bound_mem_functor1IvN5Async12SerialDeviceEPNS3_7FdWatchEEEE7destroyEPv
libasynccore.so.1.6:_ZN4sigc8internal14typed_slot_repINS_18bound_mem_functor1IvN5Async13TcpClientBaseEPNS3_7FdWatchEEEE3dupEPv
libasynccore.so.1.6:_ZN4sigc8internal14typed_slot_repINS_18bound_mem_functor1IvN5Async13TcpClientBaseEPNS3_7FdWatchEEEE7destroyEPv
libasynccore.so.1.6:_ZN4sigc8internal14typed_slot_repINS_18bound_mem_functor1IvN5Async13TcpClientBaseERNS3_9DnsLookupEEEE3dupEPv
libasynccore.so.1.6:_ZN4sigc8internal14typed_slot_repINS_18bound_mem_functor1IvN5Async13TcpClientBaseERNS3_9DnsLookupEEEE7destroyEPv
libasynccore.so.1.6:_ZN4sigc8internal14typed_slot_repINS_18bound_mem_functor1IvN5Async13TcpConnectionEPNS3_7FdWatchEEEE3dupEPv
libasynccore.so.1.6:_ZN4sigc8internal14typed_slot_repINS_18bound_mem_functor1IvN5Async13TcpConnectionEPNS3_7FdWatchEEEE7destroyEPv
libasynccore.so.1.6:_ZN4sigc8internal14typed_slot_repINS_18bound_mem_functor1IvN5Async13TcpServerBaseEPNS3_7FdWatchEEEE3dupEPv
libasynccore.so.1.6:_ZN4sigc8internal14typed_slot_repINS_18bound_mem_functor1IvN5Async13TcpServerBaseEPNS3_7FdWatchEEEE7destroyEPv
libasynccore.so.1.6:_ZN4sigc8internal14typed_slot_repINS_18bound_mem_functor1IvN5Async19FramedTcpConnectionEbEEE3dupEPv
libasynccore.so.1.6:_ZN4sigc8internal14typed_slot_repINS_18bound_mem_functor1IvN5Async19FramedTcpConnectionEbEEE7destroyEPv
libasynccore.so.1.6:_ZN4sigc8internal14typed_slot_repINS_18bound_mem_functor1IvN5Async4ExecEPNS3_7FdWatchEEEE3dupEPv
libasynccore.so.1.6:_ZN4sigc8internal14typed_slot_repINS_18bound_mem_functor1IvN5Async4ExecEPNS3_7FdWatchEEEE7destroyEPv
libasynccore.so.1.6:_ZN4sigc8internal14typed_slot_repINS_18bound_mem_functor1IvN5Async7AtTimerEPNS3_5TimerEEEE3dupEPv
libasynccore.so.1.6:_ZN4sigc8internal14typed_slot_repINS_18bound_mem_functor1IvN5Async7AtTimerEPNS3_5TimerEEEE7destroyEPv
libasynccore.so.1.6:_ZN4sigc8internal14typed_slot_repINS_18bound_mem_functor1IvN5Async9UdpSocketEPNS3_7FdWatchEEEE3dupEPv
libasynccore.so.1.6:_ZN4sigc8internal14typed_slot_repINS_18bound_mem_functor1IvN5Async9UdpSocketEPNS3_7FdWatchEEEE7destroyEPv
libasynccore.so.1.6:_ZN4sigc8internal14typed_slot_repINS_24bound_const_mem_functor2IvNS_7signal2IvPciNS_3nilEEERKS4_RKiEEE3dupEPv
libasynccore.so.1.6:_ZN4sigc8internal14typed_slot_repINS_24bound_const_mem_functor2IvNS_7signal2IvPciNS_3nilEEERKS4_RKiEEE7destroyEPv
libasynccore.so.1.6:_ZN4sigc8internal9slot_callINS_12hide_functorILin1ENS_16pointer_functor0IvEEEEvJPN5Async7FdWatchEEE7call_itEPNS0_8slot_repERKS8_
libasynccore.so.1.6:_ZN4sigc8internal9slot_callINS_12hide_functorILin1ENS_18bound_mem_functor0IvN5Async11ApplicationEEEEEvJPNS4_5TimerEEE7call_itEPNS0_8slot_repERKS9_
libasynccore.so.1.6:_ZN4sigc8internal9slot_callINS_12hide_functorILin1ENS_18bound_mem_functor0IvN5Async3PtyEEEEEvJPNS4_5TimerEEE7call_itEPNS0_8slot_repERKS9_
libasynccore.so.1.6:_ZN4sigc8internal9slot_callINS_12hide_functorILin1ENS_18bound_mem_functor0IvN5Async3PtyEEEEEvJPNS4_7FdWatchEEE7call_itEPNS0_8slot_repERKS9_
libasynccore.so.1.6:_ZN4sigc8internal9slot_callINS_12hide_functorILin1ENS_18bound_mem_functor0IvN5Async4ExecEEEEEvJPNS4_5TimerEEE7call_itEPNS0_8slot_repERKS9_
libasynccore.so.1.6:_ZN4sigc8internal9slot_callINS_18bound_mem_functor0IvN5Async9DnsLookupEEEvJEE7call_itEPNS0_8slot_repE
libasynccore.so.1.6:_ZN4sigc8internal9slot_callINS_18bound_mem_functor1IvN5Async10FileReaderEPNS3_7FdWatchEEEvJS6_EE7call_itEPNS0_8slot_repERKS6_
libasynccore.so.1.6:_ZN4sigc8internal9slot_callINS_18bound_mem_functor1IvN5Async12SerialDeviceEPNS3_7FdWatchEEEvJS6_EE7call_itEPNS0_8slot_repERKS6_
libasynccore.so.1.6:_ZN4sigc8internal9slot_callINS_18bound_mem_functor1IvN5Async13TcpClientBaseEPNS3_7FdWatchEEEvJS6_EE7call_itEPNS0_8slot_repERKS6_
libasynccore.so.1.6:_ZN4sigc8internal9slot_callINS_18bound_mem_functor1IvN5Async13TcpClientBaseERNS3_9DnsLookupEEEvJS6_EE7call_itEPNS0_8slot_repES6_
libasynccore.so.1.6:_ZN4sigc8internal9slot_callINS_18bound_mem_functor1IvN5Async13TcpConnectionEPNS3_7FdWatchEEEvJS6_EE7call_itEPNS0_8slot_repERKS6_
libasynccore.so.1.6:_ZN4sigc8internal9slot_callINS_18bound_mem_functor1IvN5Async13TcpServerBaseEPNS3_7FdWatchEEEvJS6_EE7call_itEPNS0_8slot_repERKS6_
libasynccore.so.1.6:_ZN4sigc8internal9slot_callINS_18bound_mem_functor1IvN5Async19FramedTcpConnectionEbEEvJbEE7call_itEPNS0_8slot_repERKb
libasynccore.so.1.6:_ZN4sigc8internal9slot_callINS_18bound_mem_functor1IvN5Async4ExecEPNS3_7FdWatchEEEvJS6_EE7call_itEPNS0_8slot_repERKS6_
libasynccore.so.1.6:_ZN4sigc8internal9slot_callINS_18bound_mem_functor1IvN5Async7AtTimerEPNS3_5TimerEEEvJS6_EE7call_itEPNS0_8slot_repERKS6_
libasynccore.so.1.6:_ZN4sigc8internal9slot_callINS_18bound_mem_functor1IvN5Async9UdpSocketEPNS3_7FdWatchEEEvJS6_EE7call_itEPNS0_8slot_repERKS6_
libasynccore.so.1.6:_ZN4sigc8internal9slot_callINS_24bound_const_mem_functor2IvNS_7signal2IvPciNS_3nilEEERKS4_RKiEEvJS4_iEE7call_itEPNS0_8slot_repES8_SA_
libasynccore.so.1.6:_ZN5Async10FileReader10fillBufferEv
libasynccore.so.1.6:_ZN5Async10FileReader11onDataAvailEPNS_7FdWatchE
libasynccore.so.1.6:_ZN5Async10FileReader4openERKNSt7__cxx1112basic_stringIcSt11char_traitsIcESaIcEEE
libasynccore.so.1.6:_ZN5Async10FileReader4readEPvi
libasynccore.so.1.6:_ZN5Async10FileReader5closeEv
libasynccore.so.1.6:_ZN5Async10FileReaderC1Ei
libasynccore.so.1.6:_ZN5Async10FileReaderC2Ei
libasynccore.so.1.6:_ZN5Async10FileReaderD1Ev
libasynccore.so.1.6:_ZN5Async10FileReaderD2Ev
libasynccore.so.1.6:_ZN5Async11Application10clearTasksEv
libasynccore.so.1.6:_ZN5Async11Application16taskTimerExpiredEv
libasynccore.so.1.6:_ZN5Async11Application3appEv
libasynccore.so.1.6:_ZN5Async11Application7runTaskEN4sigc4slotIvNS1_3nilES3_S3_S3_S3_S3_S3_EE
libasynccore.so.1.6:_ZN5Async11ApplicationC1Ev
libasynccore.so.1.6:_ZN5Async11ApplicationC2Ev
libasynccore.so.1.6:_ZN5Async11ApplicationD0Ev
libasynccore.so.1.6:_ZN5Async11ApplicationD1Ev
libasynccore.so.1.6:_ZN5Async11ApplicationD2Ev
libasynccore.so.1.6:_ZN5Async12PtyStreamBuf10writeToPtyEv
libasynccore.so.1.6:_ZN5Async12PtyStreamBuf4syncEv
libasynccore.so.1.6:_ZN5Async12PtyStreamBuf8overflowEi
libasynccore.so.1.6:_ZN5Async12PtyStreamBufC1EPNS_3PtyEm
libasynccore.so.1.6:_ZN5Async12PtyStreamBufC2EPNS_3PtyEm
libasynccore.so.1.6:_ZN5Async12PtyStreamBufD0Ev
libasynccore.so.1.6:_ZN5Async12PtyStreamBufD1Ev
libasynccore.so.1.6:_ZN5Async12PtyStreamBufD2Ev
libasynccore.so.1.6:_ZN5Async12SerialDevice14onIncomingDataEPNS_7FdWatchE
libasynccore.so.1.6:_ZN5Async12SerialDevice4openERKNSt7__cxx1112basic_stringIcSt11char_traitsIcESaIcEEEb
libasynccore.so.1.6:_ZN5Async12SerialDevice5closeEPS0_
libasynccore.so.1.6:_ZN5Async12SerialDevice8openPortEb
libasynccore.so.1.6:_ZN5Async12SerialDevice9closePortEv
libasynccore.so.1.6:_ZN5Async12SerialDeviceC1ERKNSt7__cxx1112basic_stringIcSt11char_traitsIcESaIcEEE
libasynccore.so.1.6:_ZN5Async12SerialDeviceC2ERKNSt7__cxx1112basic_stringIcSt11char_traitsIcESaIcEEE
libasynccore.so.1.6:_ZN5Async12SerialDeviceD1Ev
libasynccore.so.1.6:_ZN5Async12SerialDeviceD2Ev
libasynccore.so.1.6:_ZN5Async13TcpClientBase10disconnectEv
libasynccore.so.1.6:_ZN5Async13TcpClientBase14connectHandlerEPNS_7FdWatchE
libasynccore.so.1.6:_ZN5Async13TcpClientBase15connectToRemoteEv
libasynccore.so.1.6:_ZN5Async13TcpClientBase15dnsResultsReadyERNS_9DnsLookupE
libasynccore.so.1.6:_ZN5Async13TcpClientBase4bindERKNS_9IpAddressE
libasynccore.so.1.6:_ZN5Async13TcpClientBase7connectERKNS_9IpAddressEt
libasynccore.so.1.6:_ZN5Async13TcpClientBase7connectERKNSt7__cxx1112basic_stringIcSt11char_traitsIcESaIcEEEt
libasynccore.so.1.6:_ZN5Async13TcpClientBase7connectEv
libasynccore.so.1.6:_ZN5Async13TcpClientBaseC1EPNS_13TcpConnectionE
libasynccore.so.1.6:_ZN5Async13TcpClientBaseC1EPNS_13TcpConnectionERKNS_9IpAddressEt
libasynccore.so.1.6:_ZN5Async13TcpClientBaseC1EPNS_13TcpConnectionERKNSt7__cxx1112basic_stringIcSt11char_traitsIcESaIcEEEt
libasynccore.so.1.6:_ZN5Async13TcpClientBaseC2EPNS_13TcpConnectionE
libasynccore.so.1.6:_ZN5Async13TcpClientBaseC2EPNS_13TcpConnectionERKNS_9IpAddressEt
libasynccore.so.1.6:_ZN5Async13TcpClientBaseC2EPNS_13TcpConnectionERKNSt7__cxx1112basic_stringIcSt11char_traitsIcESaIcEEEt
libasynccore.so.1.6:_ZN5Async13TcpClientBaseD1Ev
libasynccore.so.1.6:_ZN5Async13TcpClientBaseD2Ev
libasynccore.so.1.6:_ZN5Async13TcpConnection10disconnectEv
libasynccore.so.1.6:_ZN5Async13TcpConnection11recvHandlerEPNS_7FdWatchE
libasynccore.so.1.6:_ZN5Async13TcpConnection12writeHandlerEPNS_7FdWatchE
libasynccore.so.1.6:_ZN5Async13TcpConnection13setRecvBufLenEm
libasynccore.so.1.6:_ZN5Async13TcpConnection13setRemoteAddrERKNS_9IpAddressE
libasynccore.so.1.6:_ZN5Async13TcpConnection13setRemotePortEt
libasynccore.so.1.6:_ZN5Async13TcpConnection19disconnectReasonStrENS0_16DisconnectReasonE
libasynccore.so.1.6:_ZN5Async13TcpConnection5writeEPKvi
libasynccore.so.1.6:_ZN5Async13TcpConnection9setSocketEi
libasynccore.so.1.6:_ZN5Async13TcpConnectionC1EiRKNS_9IpAddressEtm
libasynccore.so.1.6:_ZN5Async13TcpConnectionC1Em
libasynccore.so.1.6:_ZN5Async13TcpConnectionC2EiRKNS_9IpAddressEtm
libasynccore.so.1.6:_ZN5Async13TcpConnectionC2Em
libasynccore.so.1.6:_ZN5Async13TcpConnectionD0Ev
libasynccore.so.1.6:_ZN5Async13TcpConnectionD1Ev
libasynccore.so.1.6:_ZN5Async13TcpConnectionD2Ev
libasynccore.so.1.6:_ZN5Async13TcpServerBase11writeExceptEPNS_13TcpConnectionEPKvi
libasynccore.so.1.6:_ZN5Async13TcpServerBase12onConnectionEPNS_7FdWatchE
libasynccore.so.1.6:_ZN5Async13TcpServerBase13addConnectionEPNS_13TcpConnectionE
libasynccore.so.1.6:_ZN5Async13TcpServerBase15numberOfClientsEv
libasynccore.so.1.6:_ZN5Async13TcpServerBase16removeConnectionEPNS_13TcpConnectionE
libasynccore.so.1.6:_ZN5Async13TcpServerBase7cleanupEv
libasynccore.so.1.6:_ZN5Async13TcpServerBase8writeAllEPKvi
libasynccore.so.1.6:_ZN5Async13TcpServerBase9getClientEj
libasynccore.so.1.6:_ZN5Async13TcpServerBase9writeOnlyEPNS_13TcpConnectionEPKvi
libasynccore.so.1.6:_ZN5Async13TcpServerBaseC1ERKNSt7__cxx1112basic_stringIcSt11char_traitsIcESaIcEEERKNS_9IpAddressE
libasynccore.so.1.6:_ZN5Async13TcpServerBaseC2ERKNSt7__cxx1112basic_stringIcSt11char_traitsIcESaIcEEERKNS_9IpAddressE
libasynccore.so.1.6:_ZN5Async13TcpServerBaseD0Ev
libasynccore.so.1.6:_ZN5Async13TcpServerBaseD1Ev
libasynccore.so.1.6:_ZN5Async13TcpServerBaseD2Ev
libasynccore.so.1.6:_ZN5Async19FramedTcpConnection10disconnectEv
libasynccore.so.1.6:_ZN5Async19FramedTcpConnection14onDataReceivedEPvi
libasynccore.so.1.6:_ZN5Async19FramedTcpConnection14onDisconnectedENS_13TcpConnection16DisconnectReasonE
libasynccore.so.1.6:_ZN5Async19FramedTcpConnection16onSendBufferFullEb
libasynccore.so.1.6:_ZN5Async19FramedTcpConnection17disconnectCleanupEv
libasynccore.so.1.6:_ZN5Async19FramedTcpConnection5writeEPKvi
libasynccore.so.1.6:_ZN5Async19FramedTcpConnectionC1EiRKNS_9IpAddressEtm
libasynccore.so.1.6:_ZN5Async19FramedTcpConnectionC1Em
libasynccore.so.1.6:_ZN5Async19FramedTcpConnectionC2EiRKNS_9IpAddressEtm
libasynccore.so.1.6:_ZN5Async19FramedTcpConnectionC2Em
libasynccore.so.1.6:_ZN5Async19FramedTcpConnectionD0Ev
libasynccore.so.1.6:_ZN5Async19FramedTcpConnectionD1Ev
libasynccore.so.1.6:_ZN5Async19FramedTcpConnectionD2Ev
libasynccore.so.1.6:_ZN5Async3Pty10pollMasterEv
libasynccore.so.1.6:_ZN5Async3Pty18charactersReceivedEv
libasynccore.so.1.6:_ZN5Async3Pty19checkIfSlaveEndOpenEv
libasynccore.so.1.6:_ZN5Async3Pty4openEv
libasynccore.so.1.6:_ZN5Async3Pty5closeEv
libasynccore.so.1.6:_ZN5Async3Pty5writeEPKvm
libasynccore.so.1.6:_ZN5Async3Pty6reopenEv
libasynccore.so.1.6:_ZN5Async3PtyC1ERKNSt7__cxx1112basic_stringIcSt11char_traitsIcESaIcEEE
libasynccore.so.1.6:_ZN5Async3PtyC2ERKNSt7__cxx1112basic_stringIcSt11char_traitsIcESaIcEEE
libasynccore.so.1.6:_ZN5Async3PtyD1Ev
libasynccore.so.1.6:_ZN5Async3PtyD2Ev
libasynccore.so.1.6:_ZN5Async4Exec10closeStdinEv
libasynccore.so.1.6:_ZN5Async4Exec10setTimeoutEi
libasynccore.so.1.6:_ZN5Async4Exec10writeStdinEPKci
libasynccore.so.1.6:_ZN5Async4Exec10writeStdinERKNSt7__cxx1112basic_stringIcSt11char_traitsIcESaIcEEE
libasynccore.so.1.6:_ZN5Async4Exec13handleSigChldEiP9siginfo_tPv
libasynccore.so.1.6:_ZN5Async4Exec13handleTimeoutEv
libasynccore.so.1.6:_ZN5Async4Exec14appendArgumentERKNSt7__cxx1112basic_stringIcSt11char_traitsIcESaIcEEE
libasynccore.so.1.6:_ZN5Async4Exec14setCommandLineERKNSt7__cxx1112basic_stringIcSt11char_traitsIcESaIcEEE
libasynccore.so.1.6:_ZN5Async4Exec14stderrActivityEPNS_7FdWatchE
libasynccore.so.1.6:_ZN5Async4Exec14stdoutActivityEPNS_7FdWatchE
libasynccore.so.1.6:_ZN5Async4Exec15sigchldReceivedEv
libasynccore.so.1.6:_ZN5Async4Exec16subprocessExitedEv
libasynccore.so.1.6:_ZN5Async4Exec3runEv
libasynccore.so.1.6:_ZN5Async4Exec4killEi
libasynccore.so.1.6:_ZN5Async4Exec4niceEi
libasynccore.so.1.6:_ZN5Async4ExecC1ERKNSt7__cxx1112basic_stringIcSt11char_traitsIcESaIcEEE
libasynccore.so.1.6:_ZN5Async4ExecC2ERKNSt7__cxx1112basic_stringIcSt11char_traitsIcESaIcEEE
libasynccore.so.1.6:_ZN5Async4ExecD1Ev
libasynccore.so.1.6:_ZN5Async4ExecD2Ev
libasynccore.so.1.6:_ZN5Async5Timer10setTimeoutEi
libasynccore.so.1.6:_ZN5Async5Timer5resetEv
libasynccore.so.1.6:_ZN5Async5Timer9setEnableEb
libasynccore.so.1.6:_ZN5Async5TimerC1EiNS0_4TypeEb
libasynccore.so.1.6:_ZN5Async5TimerC2EiNS0_4TypeEb
libasynccore.so.1.6:_ZN5Async5TimerD1Ev
libasynccore.so.1.6:_ZN5Async5TimerD2Ev
libasynccore.so.1.6:_ZN5Async6Config10parseValueEPc
libasynccore.so.1.6:_ZN5Async6Config10trimSpacesEPc
libasynccore.so.1.6:_ZN5Async6Config11listSectionERKNSt7__cxx1112basic_stringIcSt11char_traitsIcESaIcEEE
libasynccore.so.1.6:_ZN5Async6Config12listSectionsB5cxx11Ev
libasynccore.so.1.6:_ZN5Async6Config12parseCfgFileEv
libasynccore.so.1.6:_ZN5Async6Config12parseSectionEPc
libasynccore.so.1.6:_ZN5Async6Config14parseValueLineEPcRNSt7__cxx1112basic_stringIcSt11char_traitsIcESaIcEEES8_
libasynccore.so.1.6:_ZN5Async6Config20parseDelimitedStringEPccc
libasynccore.so.1.6:_ZN5Async6Config21translateEscapedCharsEPc
libasynccore.so.1.6:_ZN5Async6Config4openERKNSt7__cxx1112basic_stringIcSt11char_traitsIcESaIcEEE
libasynccore.so.1.6:_ZN5Async6Config8setValueERKNSt7__cxx1112basic_stringIcSt11char_traitsIcESaIcEEES8_S8_
libasynccore.so.1.6:_ZN5Async6ConfigD1Ev
libasynccore.so.1.6:_ZN5Async6ConfigD2Ev
libasynccore.so.1.6:_ZN5Async6Serial12setCanonicalEb
libasynccore.so.1.6:_ZN5Async6Serial4openEb
libasynccore.so.1.6:_ZN5Async6Serial5closeEv
libasynccore.so.1.6:_ZN5Async6Serial6getPinENS0_3PinERb
libasynccore.so.1.6:_ZN5Async6Serial6setPinENS0_3PinEb
libasynccore.so.1.6:_ZN5Async6Serial9setParamsEiNS0_6ParityEiiNS0_4FlowE
libasynccore.so.1.6:_ZN5Async6Serial9stopInputEb
libasynccore.so.1.6:_ZN5Async6SerialC1ERKNSt7__cxx1112basic_stringIcSt11char_traitsIcESaIcEEE
libasynccore.so.1.6:_ZN5Async6SerialC2ERKNSt7__cxx1112basic_stringIcSt11char_traitsIcESaIcEEE
libasynccore.so.1.6:_ZN5Async6SerialD1Ev
libasynccore.so.1.6:_ZN5Async6SerialD2Ev
libasynccore.so.1.6:_ZN5Async7AtTimer10setTimeoutER2tm
libasynccore.so.1.6:_ZN5Async7AtTimer10setTimeoutEl
libasynccore.so.1.6:_ZN5Async7AtTimer13msecToTimeoutEv
libasynccore.so.1.6:_ZN5Async7AtTimer14onTimerExpiredEPNS_5TimerE
libasynccore.so.1.6:_ZN5Async7AtTimer15setExpireOffsetEi
libasynccore.so.1.6:_ZN5Async7AtTimer4stopEv
libasynccore.so.1.6:_ZN5Async7AtTimer5startEv
libasynccore.so.1.6:_ZN5Async7AtTimerC1ER2tmb
libasynccore.so.1.6:_ZN5Async7AtTimerC1Ev
libasynccore.so.1.6:_ZN5Async7AtTimerC2ER2tmb
libasynccore.so.1.6:_ZN5Async7AtTimerC2Ev
libasynccore.so.1.6:_ZN5Async7AtTimerD1Ev
libasynccore.so.1.6:_ZN5Async7AtTimerD2Ev
libasynccore.so.1.6:_ZN5Async7FdWatch10setEnabledEb
libasynccore.so.1.6:_ZN5Async7FdWatch5setFdEiNS0_11FdWatchTypeE
libasynccore.so.1.6:_ZN5Async7FdWatchC1EiNS0_11FdWatchTypeE
libasynccore.so.1.6:_ZN5Async7FdWatchC1Ev
libasynccore.so.1.6:_ZN5Async7FdWatchC2EiNS0_11FdWatchTypeE
libasynccore.so.1.6:_ZN5Async7FdWatchC2Ev
libasynccore.so.1.6:_ZN5Async7FdWatchD1Ev
libasynccore.so.1.6:_ZN5Async7FdWatchD2Ev
libasynccore.so.1.6:_ZN5Async9DnsLookup14onResultsReadyEv
libasynccore.so.1.6:_ZN5Async9DnsLookup9addressesEv
libasynccore.so.1.6:_ZN5Async9DnsLookupC1ERKNSt7__cxx1112basic_stringIcSt11char_traitsIcESaIcEEE
libasynccore.so.1.6:_ZN5Async9DnsLookupC2ERKNSt7__cxx1112basic_stringIcSt11char_traitsIcESaIcEEE
libasynccore.so.1.6:_ZN5Async9DnsLookupD1Ev
libasynccore.so.1.6:_ZN5Async9DnsLookupD2Ev
libasynccore.so.1.6:_ZN5Async9IpAddress15setIpFromStringERKNSt7__cxx1112basic_stringIcSt11char_traitsIcESaIcEEE
libasynccore.so.1.6:_ZN5Async9IpAddressC1ERK7in_addr
libasynccore.so.1.6:_ZN5Async9IpAddressC1ERKNSt7__cxx1112basic_stringIcSt11char_traitsIcESaIcEEE
libasynccore.so.1.6:_ZN5Async9IpAddressC1Ev
libasynccore.so.1.6:_ZN5Async9IpAddressC2ERK7in_addr
libasynccore.so.1.6:_ZN5Async9IpAddressC2ERKNSt7__cxx1112basic_stringIcSt11char_traitsIcESaIcEEE
libasynccore.so.1.6:_ZN5Async9IpAddressC2Ev
libasynccore.so.1.6:_ZN5Async9UdpSocket11handleInputEPNS_7FdWatchE
libasynccore.so.1.6:_ZN5Async9UdpSocket5writeERKNS_9IpAddressEiPKvi
libasynccore.so.1.6:_ZN5Async9UdpSocket7cleanupEv
libasynccore.so.1.6:_ZN5Async9UdpSocket8sendRestEPNS_7FdWatchE
libasynccore.so.1.6:_ZN5Async9UdpSocketC1EtRKNS_9IpAddressE
libasynccore.so.1.6:_ZN5Async9UdpSocketC2EtRKNS_9IpAddressE
libasynccore.so.1.6:_ZN5Async9UdpSocketD1Ev
libasynccore.so.1.6:_ZN5Async9UdpSocketD2Ev
libasynccore.so.1.6:_ZN5AsynclsERSoRKNS_9IpAddressE
libasynccore.so.1.6:_ZN5AsyncrsERSiRNS_9IpAddressE
libasynccore.so.1.6:_ZNK4sigc7signal2IvPciNS_3nilEE4emitERKS1_RKi
libasynccore.so.1.6:_ZNK5Async10FileReader13bytesInBufferEv
libasynccore.so.1.6:_ZNK5Async4Exec10exitStatusEv
libasynccore.so.1.6:_ZNK5Async4Exec10ifSignaledEv
libasynccore.so.1.6:_ZNK5Async4Exec7termSigEv
libasynccore.so.1.6:_ZNK5Async4Exec8ifExitedEv
libasynccore.so.1.6:_ZNK5Async6Config8getValueERKNSt7__cxx1112basic_stringIcSt11char_traitsIcESaIcEEES8_
libasynccore.so.1.6:_ZNK5Async6Config8getValueERKNSt7__cxx1112basic_stringIcSt11char_traitsIcESaIcEEES8_RS6_
libasynccore.so.1.6:_ZNK5Async9IpAddress13isWithinSubetERKNSt7__cxx1112basic_stringIcSt11char_traitsIcESaIcEEE
libasynccore.so.1.6:_ZNK5Async9IpAddress8toStringB5cxx11Ev
libasynccore.so.1.6:_ZNK5Async9IpAddress9isUnicastEv
libasynccpp.so.1.6:_ZN4sigc8internal14typed_slot_repINS_12hide_functorILin1ENS_18bound_mem_functor0IvN5Async14CppApplicationEEEEEE3dupEPv
libasynccpp.so.1.6:_ZN4sigc8internal14typed_slot_repINS_12hide_functorILin1ENS_18bound_mem_functor0IvN5Async14CppApplicationEEEEEE7destroyEPv
libasynccpp.so.1.6:_ZN4sigc8internal14typed_slot_repINS_18bound_mem_functor1IvN5Async18CppDnsLookupWorkerEPNS3_7FdWatchEEEE3dupEPv
libasynccpp.so.1.6:_ZN4sigc8internal14typed_slot_repINS_18bound_mem_functor1IvN5Async18CppDnsLookupWorkerEPNS3_7FdWatchEEEE7destroyEPv
libasynccpp.so.1.6:_ZN4sigc8internal9slot_callINS_12hide_functorILin1ENS_18bound_mem_functor0IvN5Async14CppApplicationEEEEEvJPNS4_7FdWatchEEE7call_itEPNS0_8slot_repERKS9_
libasynccpp.so.1.6:_ZN4sigc8internal9slot_callINS_18bound_mem_functor1IvN5Async18CppDnsLookupWorkerEPNS3_7FdWatchEEEvJS6_EE7call_itEPNS0_8slot_repERKS6_
libasynccpp.so.1.6:_ZN5Async14CppApplication10addFdWatchEPNS_7FdWatchE
libasynccpp.so.1.6:_ZN5Async14CppApplication10delFdWatchEPNS_7FdWatchE
libasynccpp.so.1.6:_ZN5Async14CppApplication15catchUnixSignalEi
libasynccpp.so.1.6:_ZN5Async14CppApplication16handleUnixSignalEv
libasynccpp.so.1.6:_ZN5Async14CppApplication17uncatchUnixSignalEi
libasynccpp.so.1.6:_ZN5Async14CppApplication17unixSignalHandlerEi
libasynccpp.so.1.6:_ZN5Async14CppApplication18newDnsLookupWorkerERKNSt7__cxx1112basic_stringIcSt11char_traitsIcESaIcEEE
libasynccpp.so.1.6:_ZN5Async14CppApplication4execEv
libasynccpp.so.1.6:_ZN5Async14CppApplication4quitEv
libasynccpp.so.1.6:_ZN5Async14CppApplication8addTimerEPNS_5TimerE
libasynccpp.so.1.6:_ZN5Async14CppApplication8delTimerEPNS_5TimerE
libasynccpp.so.1.6:_ZN5Async14CppApplication9addTimerPEPNS_5TimerERK8timespec
libasynccpp.so.1.6:_ZN5Async14CppApplicationC1Ev
libasynccpp.so.1.6:_ZN5Async14CppApplicationC2Ev
libasynccpp.so.1.6:_ZN5Async14CppApplicationD0Ev
libasynccpp.so.1.6:_ZN5Async14CppApplicationD1Ev
libasynccpp.so.1.6:_ZN5Async14CppApplicationD2Ev
libasynccpp.so.1.6:_ZN5Async18CppDnsLookupWorker10workerFuncEPv
libasynccpp.so.1.6:_ZN5Async18CppDnsLookupWorker20notificationReceivedEPNS_7FdWatchE
libasynccpp.so.1.6:_ZN5Async18CppDnsLookupWorker8doLookupEv
libasynccpp.so.1.6:_ZN5Async18CppDnsLookupWorkerC1ERKNSt7__cxx1112basic_stringIcSt11char_traitsIcESaIcEEE
libasynccpp.so.1.6:_ZN5Async18CppDnsLookupWorkerC2ERKNSt7__cxx1112basic_stringIcSt11char_traitsIcESaIcEEE
libasynccpp.so.1.6:_ZN5Async18CppDnsLookupWorkerD0Ev
libasynccpp.so.1.6:_ZN5Async18CppDnsLookupWorkerD1Ev
libasynccpp.so.1.6:_ZN5Async18CppDnsLookupWorkerD2Ev
libasyncqt.so.1.6:_ZN17QtMetaTypePrivate23QMetaTypeFunctionHelperI9QHostInfoLb1EE8DestructEPv
libasyncqt.so.1.6:_ZN17QtMetaTypePrivate23QMetaTypeFunctionHelperI9QHostInfoLb1EE9ConstructEPvPKv
libasyncqt.so.1.6:_ZN5Async12AsyncQtTimer11qt_metacallEN11QMetaObject4CallEiPPv
libasyncqt.so.1.6:_ZN5Async12AsyncQtTimer11qt_metacastEPKc
libasyncqt.so.1.6:_ZN5Async13QtApplication10addFdWatchEPNS_7FdWatchE
libasyncqt.so.1.6:_ZN5Async13QtApplication10delFdWatchEPNS_7FdWatchE
libasyncqt.so.1.6:_ZN5Async13QtApplication11qt_metacallEN11QMetaObject4CallEiPPv
libasyncqt.so.1.6:_ZN5Async13QtApplication11qt_metacastEPKc
libasyncqt.so.1.6:_ZN5Async13QtApplication12rdFdActivityEi
libasyncqt.so.1.6:_ZN5Async13QtApplication12wrFdActivityEi
libasyncqt.so.1.6:_ZN5Async13QtApplication18newDnsLookupWorkerERKNSt7__cxx1112basic_stringIcSt11char_traitsIcESaIcEEE
libasyncqt.so.1.6:_ZN5Async13QtApplication4execEv
libasyncqt.so.1.6:_ZN5Async13QtApplication4quitEv
libasyncqt.so.1.6:_ZN5Async13QtApplication8addTimerEPNS_5TimerE
libasyncqt.so.1.6:_ZN5Async13QtApplication8delTimerEPNS_5TimerE
libasyncqt.so.1.6:_ZN5Async13QtApplicationC1ERiPPc
libasyncqt.so.1.6:_ZN5Async13QtApplicationC2ERiPPc
libasyncqt.so.1.6:_ZN5Async13QtApplicationD0Ev
libasyncqt.so.1.6:_ZN5Async13QtApplicationD1Ev
libasyncqt.so.1.6:_ZN5Async13QtApplicationD2Ev
libasyncqt.so.1.6:_ZN5Async17QtDnsLookupWorker11qt_metacallEN11QMetaObject4CallEiPPv
libasyncqt.so.1.6:_ZN5Async17QtDnsLookupWorker11qt_metacastEPKc
libasyncqt.so.1.6:_ZN5Async17QtDnsLookupWorker14onResultsReadyERK9QHostInfo
libasyncqt.so.1.6:_ZN5Async17QtDnsLookupWorker9addressesEv
libasyncqt.so.1.6:_ZN5Async17QtDnsLookupWorkerC1ERKNSt7__cxx1112basic_stringIcSt11char_traitsIcESaIcEEE
libasyncqt.so.1.6:_ZN5Async17QtDnsLookupWorkerC2ERKNSt7__cxx1112basic_stringIcSt11char_traitsIcESaIcEEE
libasyncqt.so.1.6:_ZN5Async17QtDnsLookupWorkerD0Ev
libasyncqt.so.1.6:_ZN5Async17QtDnsLookupWorkerD1Ev
libasyncqt.so.1.6:_ZN5Async17QtDnsLookupWorkerD2Ev
libasyncqt.so.1.6:_ZNK5Async12AsyncQtTimer10metaObjectEv
libasyncqt.so.1.6:_ZNK5Async13QtApplication10metaObjectEv
libasyncqt.so.1.6:_ZNK5Async17QtDnsLookupWorker10metaObjectEv
libasyncqt.so.1.6:_ZThn16_N5Async13QtApplication10addFdWatchEPNS_7FdWatchE
libasyncqt.so.1.6:_ZThn16_N5Async13QtApplication10delFdWatchEPNS_7FdWatchE
libasyncqt.so.1.6:_ZThn16_N5Async13QtApplication18newDnsLookupWorkerERKNSt7__cxx1112basic_stringIcSt11char_traitsIcESaIcEEE
libasyncqt.so.1.6:_ZThn16_N5Async13QtApplication4execEv
libasyncqt.so.1.6:_ZThn16_N5Async13QtApplication4quitEv
libasyncqt.so.1.6:_ZThn16_N5Async13QtApplication8addTimerEPNS_5TimerE
libasyncqt.so.1.6:_ZThn16_N5Async13QtApplication8delTimerEPNS_5TimerE
libasyncqt.so.1.6:_ZThn16_N5Async13QtApplicationD0Ev
libasyncqt.so.1.6:_ZThn16_N5Async13QtApplicationD1Ev
libasyncqt.so.1.6:_ZThn16_N5Async17QtDnsLookupWorker9addressesEv
libasyncqt.so.1.6:_ZThn16_N5Async17QtDnsLookupWorkerD0Ev
libasyncqt.so.1.6:_ZThn16_N5Async17QtDnsLookupWorkerD1Ev
libecholib.so.1.3:_Z12rtp_make_byePh
libecholib.so.1.3:_Z13rtp_make_sdesPhPKcS1_S1_
libecholib.so.1.3:_Z15isRTCPByepacketPhi
libecholib.so.1.3:_Z16isRTCPSdespacketPhi
libecholib.so.1.3:_Z9parseSDESPcPhh
libecholib.so.1.3:_ZN4sigc8internal14typed_slot_repINS_12hide_functorILin1ENS_18bound_mem_functor0IvN5Async9TcpClientINS4_13TcpConnectionEEEEEEEE3dupEPv
libecholib.so.1.3:_ZN4sigc8internal14typed_slot_repINS_12hide_functorILin1ENS_18bound_mem_functor0IvN5Async9TcpClientINS4_13TcpConnectionEEEEEEEE7destroyEPv
libecholib.so.1.3:_ZN4sigc8internal14typed_slot_repINS_12hide_functorILin1ENS_18bound_mem_functor0IvN8EchoLink5ProxyEEEEEE3dupEPv
libecholib.so.1.3:_ZN4sigc8internal14typed_slot_repINS_12hide_functorILin1ENS_18bound_mem_functor0IvN8EchoLink5ProxyEEEEEE7destroyEPv
libecholib.so.1.3:_ZN4sigc8internal14typed_slot_repINS_18bound_mem_functor0IvN8EchoLink5ProxyEEEE3dupEPv
libecholib.so.1.3:_ZN4sigc8internal14typed_slot_repINS_18bound_mem_functor0IvN8EchoLink5ProxyEEEE7destroyEPv
libecholib.so.1.3:_ZN4sigc8internal14typed_slot_repINS_18bound_mem_functor0IvN8EchoLink9DirectoryEEEE3dupEPv
libecholib.so.1.3:_ZN4sigc8internal14typed_slot_repINS_18bound_mem_functor0IvN8EchoLink9DirectoryEEEE7destroyEPv
libecholib.so.1.3:_ZN4sigc8internal14typed_slot_repINS_18bound_mem_functor1IvN8EchoLink12DirectoryConERN5Async9DnsLookupEEEE3dupEPv
libecholib.so.1.3:_ZN4sigc8internal14typed_slot_repINS_18bound_mem_functor1IvN8EchoLink12DirectoryConERN5Async9DnsLookupEEEE7destroyEPv
libecholib.so.1.3:_ZN4sigc8internal14typed_slot_repINS_18bound_mem_functor1IvN8EchoLink12DirectoryConEbEEE3dupEPv
libecholib.so.1.3:_ZN4sigc8internal14typed_slot_repINS_18bound_mem_functor1IvN8EchoLink12DirectoryConEbEEE7destroyEPv
libecholib.so.1.3:_ZN4sigc8internal14typed_slot_repINS_18bound_mem_functor1IvN8EchoLink3QsoEPN5Async5TimerEEEE3dupEPv
libecholib.so.1.3:_ZN4sigc8internal14typed_slot_repINS_18bound_mem_functor1IvN8EchoLink3QsoEPN5Async5TimerEEEE7destroyEPv
libecholib.so.1.3:_ZN4sigc8internal14typed_slot_repINS_18bound_mem_functor1IvN8EchoLink9DirectoryEPN5Async5TimerEEEE3dupEPv
libecholib.so.1.3:_ZN4sigc8internal14typed_slot_repINS_18bound_mem_functor1IvN8EchoLink9DirectoryEPN5Async5TimerEEEE7destroyEPv
libecholib.so.1.3:_ZN4sigc8internal14typed_slot_repINS_18bound_mem_functor1IvN8EchoLink9DirectoryEbEEE3dupEPv
libecholib.so.1.3:_ZN4sigc8internal14typed_slot_repINS_18bound_mem_functor1IvN8EchoLink9DirectoryEbEEE7destroyEPv
libecholib.so.1.3:_ZN4sigc8internal14typed_slot_repINS_18bound_mem_functor2IiN8EchoLink9DirectoryEPvjEEE3dupES5_
libecholib.so.1.3:_ZN4sigc8internal14typed_slot_repINS_18bound_mem_functor2IiN8EchoLink9DirectoryEPvjEEE7destroyES5_
libecholib.so.1.3:_ZN4sigc8internal14typed_slot_repINS_18bound_mem_functor2IvN8EchoLink12DirectoryConEPN5Async13TcpConnectionENS6_16DisconnectReasonEEEE3dupEPv
libecholib.so.1.3:_ZN4sigc8internal14typed_slot_repINS_18bound_mem_functor2IvN8EchoLink12DirectoryConEPN5Async13TcpConnectionENS6_16DisconnectReasonEEEE7destroyEPv
libecholib.so.1.3:_ZN4sigc8internal14typed_slot_repINS_18bound_mem_functor2IvN8EchoLink5ProxyEPN5Async13TcpConnectionENS6_16DisconnectReasonEEEE3dupEPv
libecholib.so.1.3:_ZN4sigc8internal14typed_slot_repINS_18bound_mem_functor2IvN8EchoLink5ProxyEPN5Async13TcpConnectionENS6_16DisconnectReasonEEEE7destroyEPv
libecholib.so.1.3:_ZN4sigc8internal14typed_slot_repINS_18bound_mem_functor3IiN8EchoLink12DirectoryConEPN5Async13TcpConnectionEPviEEE3dupES8_
libecholib.so.1.3:_ZN4sigc8internal14typed_slot_repINS_18bound_mem_functor3IiN8EchoLink12DirectoryConEPN5Async13TcpConnectionEPviEEE7destroyES8_
libecholib.so.1.3:_ZN4sigc8internal14typed_slot_repINS_18bound_mem_functor3IiN8EchoLink5ProxyEPN5Async13TcpConnectionEPviEEE3dupES8_
libecholib.so.1.3:_ZN4sigc8internal14typed_slot_repINS_18bound_mem_functor3IiN8EchoLink5ProxyEPN5Async13TcpConnectionEPviEEE7destroyES8_
libecholib.so.1.3:_ZN4sigc8internal14typed_slot_repINS_18bound_mem_functor4IvN8EchoLink10DispatcherERKN5Async9IpAddressEtPviEEE3dupES9_
libecholib.so.1.3:_ZN4sigc8internal14typed_slot_repINS_18bound_mem_functor4IvN8EchoLink10DispatcherERKN5Async9IpAddressEtPviEEE7destroyES9_
libecholib.so.1.3:_ZN4sigc8internal14typed_slot_repINS_24bound_const_mem_functor0IvNS_7signal0IvNS_3nilEEEEEE3dupEPv
libecholib.so.1.3:_ZN4sigc8internal14typed_slot_repINS_24bound_const_mem_functor0IvNS_7signal0IvNS_3nilEEEEEE7destroyEPv
libecholib.so.1.3:_ZN4sigc8internal14typed_slot_repINS_24bound_const_mem_functor2IiNS_7signal2IiPvjNS_3nilEEERKS4_RKjEEE3dupES4_
libecholib.so.1.3:_ZN4sigc8internal14typed_slot_repINS_24bound_const_mem_functor2IiNS_7signal2IiPvjNS_3nilEEERKS4_RKjEEE7destroyES4_
libecholib.so.1.3:_ZN4sigc8internal9slot_callINS_12hide_functorILin1ENS_18bound_mem_functor0IvN5Async9TcpClientINS4_13TcpConnectionEEEEEEEvJPNS4_5TimerEEE7call_itEPNS0_8slot_repERKSB_
libecholib.so.1.3:_ZN4sigc8internal9slot_callINS_12hide_functorILin1ENS_18bound_mem_functor0IvN8EchoLink5ProxyEEEEEvJPN5Async5TimerEEE7call_itEPNS0_8slot_repERKSA_
libecholib.so.1.3:_ZN4sigc8internal9slot_callINS_18bound_mem_functor0IvN8EchoLink5ProxyEEEvJEE7call_itEPNS0_8slot_repE
libecholib.so.1.3:_ZN4sigc8internal9slot_callINS_18bound_mem_functor0IvN8EchoLink9DirectoryEEEvJEE7call_itEPNS0_8slot_repE
libecholib.so.1.3:_ZN4sigc8internal9slot_callINS_18bound_mem_functor1IvN8EchoLink12DirectoryConERN5Async9DnsLookupEEEvJS7_EE7call_itEPNS0_8slot_repES7_
libecholib.so.1.3:_ZN4sigc8internal9slot_callINS_18bound_mem_functor1IvN8EchoLink12DirectoryConEbEEvJbEE7call_itEPNS0_8slot_repERKb
libecholib.so.1.3:_ZN4sigc8internal9slot_callINS_18bound_mem_functor1IvN8EchoLink3QsoEPN5Async5TimerEEEvJS7_EE7call_itEPNS0_8slot_repERKS7_
libecholib.so.1.3:_ZN4sigc8internal9slot_callINS_18bound_mem_functor1IvN8EchoLink9DirectoryEPN5Async5TimerEEEvJS7_EE7call_itEPNS0_8slot_repERKS7_
libecholib.so.1.3:_ZN4sigc8internal9slot_callINS_18bound_mem_functor1IvN8EchoLink9DirectoryEbEEvJbEE7call_itEPNS0_8slot_repERKb
libecholib.so.1.3:_ZN4sigc8internal9slot_callINS_18bound_mem_functor2IiN8EchoLink9DirectoryEPvjEEiJS5_jEE7call_itEPNS0_8slot_repERKS5_RKj
libecholib.so.1.3:_ZN4sigc8internal9slot_callINS_18bound_mem_functor2IvN8EchoLink12DirectoryConEPN5Async13TcpConnectionENS6_16DisconnectReasonEEEvJS7_S8_EE7call_itEPNS0_8slot_repERKS7_RKS8_
libecholib.so.1.3:_ZN4sigc8internal9slot_callINS_18bound_mem_functor2IvN8EchoLink5ProxyEPN5Async13TcpConnectionENS6_16DisconnectReasonEEEvJS7_S8_EE7call_itEPNS0_8slot_repERKS7_RKS8_
libecholib.so.1.3:_ZN4sigc8internal9slot_callINS_18bound_mem_functor3IiN8EchoLink12DirectoryConEPN5Async13TcpConnectionEPviEEiJS7_S8_iEE7call_itEPNS0_8slot_repERKS7_RKS8_RKi
libecholib.so.1.3:_ZN4sigc8internal9slot_callINS_18bound_mem_functor3IiN8EchoLink5ProxyEPN5Async13TcpConnectionEPviEEiJS7_S8_iEE7call_itEPNS0_8slot_repERKS7_RKS8_RKi
libecholib.so.1.3:_ZN4sigc8internal9slot_callINS_18bound_mem_functor4IvN8EchoLink10DispatcherERKN5Async9IpAddressEtPviEEvJS8_tS9_iEE7call_itEPNS0_8slot_repES8_RKtRKS9_RKi
libecholib.so.1.3:_ZN4sigc8internal9slot_callINS_18bound_mem_functor4IvN8EchoLink10DispatcherERKN5Async9IpAddressEtPviEEvJS8_tS9_jEE7call_itEPNS0_8slot_repES8_RKtRKS9_RKj
libecholib.so.1.3:_ZN4sigc8internal9slot_callINS_24bound_const_mem_functor0IvNS_7signal0IvNS_3nilEEEEEvJEE7call_itEPNS0_8slot_repE
libecholib.so.1.3:_ZN4sigc8internal9slot_callINS_24bound_const_mem_functor2IiNS_7signal2IiPvjNS_3nilEEERKS4_RKjEEiJS4_jEE7call_itEPNS0_8slot_repES8_SA_
libecholib.so.1.3:_ZN8EchoLink10Dispatcher11sendCtrlMsgERKN5Async9IpAddressEPKvi
libecholib.so.1.3:_ZN8EchoLink10Dispatcher11setBindAddrERKN5Async9IpAddressE
libecholib.so.1.3:_ZN8EchoLink10Dispatcher11setPortBaseEi
libecholib.so.1.3:_ZN8EchoLink10Dispatcher12sendAudioMsgERKN5Async9IpAddressEPKvi
libecholib.so.1.3:_ZN8EchoLink10Dispatcher14deleteInstanceEv
libecholib.so.1.3:_ZN8EchoLink10Dispatcher16ctrlDataReceivedERKN5Async9IpAddressEtPvi
libecholib.so.1.3:_ZN8EchoLink10Dispatcher17audioDataReceivedERKN5Async9IpAddressEtPvi
libecholib.so.1.3:_ZN8EchoLink10Dispatcher18registerConnectionEPNS_3QsoEMS1_FvPhiES5_
libecholib.so.1.3:_ZN8EchoLink10Dispatcher20unregisterConnectionEPNS_3QsoE
libecholib.so.1.3:_ZN8EchoLink10Dispatcher8instanceEv
libecholib.so.1.3:_ZN8EchoLink10Dispatcher9printDataEPKci
libecholib.so.1.3:_ZN8EchoLink10DispatcherC1Ev
libecholib.so.1.3:_ZN8EchoLink10DispatcherC2Ev
libecholib.so.1.3:_ZN8EchoLink10DispatcherD1Ev
libecholib.so.1.3:_ZN8EchoLink10DispatcherD2Ev
libecholib.so.1.3:_ZN8EchoLink11StationData10callToCodeERKNSt7__cxx1112basic_stringIcSt11char_traitsIcESaIcEEE
libecholib.so.1.3:_ZN8EchoLink11StationData11setCallsignERKNSt7__cxx1112basic_stringIcSt11char_traitsIcESaIcEEE
libecholib.so.1.3:_ZN8EchoLink11StationData20removeTrailingSpacesERNSt7__cxx1112basic_stringIcSt11char_traitsIcESaIcEEE
libecholib.so.1.3:_ZN8EchoLink11StationData5clearEv
libecholib.so.1.3:_ZN8EchoLink11StationData7setDataEPKc
libecholib.so.1.3:_ZN8EchoLink11StationData9statusStrB5cxx11ENS0_6StatusE
libecholib.so.1.3:_ZN8EchoLink11StationDataC1Ev
libecholib.so.1.3:_ZN8EchoLink11StationDataC2Ev
libecholib.so.1.3:_ZN8EchoLink11StationDataaSERKS0_
libecholib.so.1.3:_ZN8EchoLink12DirectoryCon10disconnectEv
libecholib.so.1.3:_ZN8EchoLink12DirectoryCon10proxyReadyEb
libecholib.so.1.3:_ZN8EchoLink12DirectoryCon11doDnsLookupEv
libecholib.so.1.3:_ZN8EchoLink12DirectoryCon14onDataReceivedEPN5Async13TcpConnectionEPvi
libecholib.so.1.3:_ZN8EchoLink12DirectoryCon14onDisconnectedEPN5Async13TcpConnectionENS2_16DisconnectReasonE
libecholib.so.1.3:_ZN8EchoLink12DirectoryCon23onDnsLookupResultsReadyERN5Async9DnsLookupE
libecholib.so.1.3:_ZN8EchoLink12DirectoryCon5writeEPKvj
libecholib.so.1.3:_ZN8EchoLink12DirectoryCon7connectEv
libecholib.so.1.3:_ZN8EchoLink12DirectoryCon9doConnectEv
libecholib.so.1.3:_ZN8EchoLink12DirectoryConC1ERKSt6vectorINSt7__cxx1112basic_stringIcSt11char_traitsIcESaIcEEESaIS7_EERKN5Async9IpAddressE
libecholib.so.1.3:_ZN8EchoLink12DirectoryConC2ERKSt6vectorINSt7__cxx1112basic_stringIcSt11char_traitsIcESaIcEEESaIS7_EERKN5Async9IpAddressE
libecholib.so.1.3:_ZN8EchoLink12DirectoryConD1Ev
libecholib.so.1.3:_ZN8EchoLink12DirectoryConD2Ev
libecholib.so.1.3:_ZN8EchoLink3Qso10disconnectEv
libecholib.so.1.3:_ZN8EchoLink3Qso12flushSamplesEv
libecholib.so.1.3:_ZN8EchoLink3Qso12resumeOutputEv
libecholib.so.1.3:_ZN8EchoLink3Qso12sendAudioRawEPNS0_9RawPacketE
libecholib.so.1.3:_ZN8EchoLink3Qso12sendChatDataERKNSt7__cxx1112basic_stringIcSt11char_traitsIcESaIcEEE
libecholib.so.1.3:_ZN8EchoLink3Qso12sendInfoDataERKNSt7__cxx1112basic_stringIcSt11char_traitsIcESaIcEEE
libecholib.so.1.3:_ZN8EchoLink3Qso12setLocalInfoERKNSt7__cxx1112basic_stringIcSt11char_traitsIcESaIcEEE
libecholib.so.1.3:_ZN8EchoLink3Qso12setLocalNameERKNSt7__cxx1112basic_stringIcSt11char_traitsIcESaIcEEE
libecholib.so.1.3:_ZN8EchoLink3Qso12writeSamplesEPKfi
libecholib.so.1.3:_ZN8EchoLink3Qso13sendByePacketEv
libecholib.so.1.3:_ZN8EchoLink3Qso13sendKeepAliveEPN5Async5TimerE
libecholib.so.1.3:_ZN8EchoLink3Qso13setUseGsmOnlyEv
libecholib.so.1.3:_ZN8EchoLink3Qso14sendSdesPacketEv
libecholib.so.1.3:_ZN8EchoLink3Qso15checkRxActivityEPN5Async5TimerE
libecholib.so.1.3:_ZN8EchoLink3Qso15handleCtrlInputEPhi
libecholib.so.1.3:_ZN8EchoLink3Qso15sendVoicePacketEv
libecholib.so.1.3:_ZN8EchoLink3Qso15setRemoteParamsERKNSt7__cxx1112basic_stringIcSt11char_traitsIcESaIcEEE
libecholib.so.1.3:_ZN8EchoLink3Qso15setupConnectionEv
libecholib.so.1.3:_ZN8EchoLink3Qso16handleAudioInputEPhi
libecholib.so.1.3:_ZN8EchoLink3Qso16setLocalCallsignERKNSt7__cxx1112basic_stringIcSt11char_traitsIcESaIcEEE
libecholib.so.1.3:_ZN8EchoLink3Qso17allSamplesFlushedEv
libecholib.so.1.3:_ZN8EchoLink3Qso17cleanupConnectionEv
libecholib.so.1.3:_ZN8EchoLink3Qso17connectionTimeoutEPN5Async5TimerE
libecholib.so.1.3:_ZN8EchoLink3Qso6acceptEv
libecholib.so.1.3:_ZN8EchoLink3Qso7connectEv
libecholib.so.1.3:_ZN8EchoLink3Qso8setStateENS0_5StateE
libecholib.so.1.3:_ZN8EchoLink3Qso9printDataEPKhi
libecholib.so.1.3:_ZN8EchoLink3QsoC1ERKN5Async9IpAddressERKNSt7__cxx1112basic_stringIcSt11char_traitsIcESaIcEEESC_SC_
libecholib.so.1.3:_ZN8EchoLink3QsoC2ERKN5Async9IpAddressERKNSt7__cxx1112basic_stringIcSt11char_traitsIcESaIcEEESC_SC_
libecholib.so.1.3:_ZN8EchoLink3QsoD0Ev
libecholib.so.1.3:_ZN8EchoLink3QsoD1Ev
libecholib.so.1.3:_ZN8EchoLink3QsoD2Ev
libecholib.so.1.3:_ZN8EchoLink5Proxy10cmdTimeoutEv
libecholib.so.1.3:_ZN8EchoLink5Proxy10disconnectEv
libecholib.so.1.3:_ZN8EchoLink5Proxy11onConnectedEv
libecholib.so.1.3:_ZN8EchoLink5Proxy12sendMsgBlockENS0_12MsgBlockTypeERKN5Async9IpAddressEPKvj
libecholib.so.1.3:_ZN8EchoLink5Proxy14onDataReceivedEPN5Async13TcpConnectionEPvi
libecholib.so.1.3:_ZN8EchoLink5Proxy14onDisconnectedEPN5Async13TcpConnectionENS2_16DisconnectReasonE
libecholib.so.1.3:_ZN8EchoLink5Proxy15handleSystemMsgEPKhi
libecholib.so.1.3:_ZN8EchoLink5Proxy16handleTcpDataMsgEPhi
libecholib.so.1.3:_ZN8EchoLink5Proxy16handleUdpCtrlMsgERKN5Async9IpAddressEPhi
libecholib.so.1.3:_ZN8EchoLink5Proxy16handleUdpDataMsgERKN5Async9IpAddressEPhi
libecholib.so.1.3:_ZN8EchoLink5Proxy17disconnectHandlerEv
libecholib.so.1.3:_ZN8EchoLink5Proxy17handleTcpCloseMsgEPKhi
libecholib.so.1.3:_ZN8EchoLink5Proxy18handleTcpStatusMsgEPKhi
libecholib.so.1.3:_ZN8EchoLink5Proxy20handleAuthenticationEPKhi
libecholib.so.1.3:_ZN8EchoLink5Proxy22parseProxyMessageBlockEPhi
libecholib.so.1.3:_ZN8EchoLink5Proxy23handleProxyMessageBlockENS0_12MsgBlockTypeERKN5Async9IpAddressEjPh
libecholib.so.1.3:_ZN8EchoLink5Proxy5resetEv
libecholib.so.1.3:_ZN8EchoLink5Proxy7connectEv
libecholib.so.1.3:_ZN8EchoLink5Proxy7tcpDataEPKvj
libecholib.so.1.3:_ZN8EchoLink5Proxy7tcpOpenERKN5Async9IpAddressE
libecholib.so.1.3:_ZN8EchoLink5Proxy7udpCtrlERKN5Async9IpAddressEPKvj
libecholib.so.1.3:_ZN8EchoLink5Proxy7udpDataERKN5Async9IpAddressEPKvj
libecholib.so.1.3:_ZN8EchoLink5Proxy8tcpCloseEv
libecholib.so.1.3:_ZN8EchoLink5ProxyC1ERKNSt7__cxx1112basic_stringIcSt11char_traitsIcESaIcEEEtS8_S8_
libecholib.so.1.3:_ZN8EchoLink5ProxyC2ERKNSt7__cxx1112basic_stringIcSt11char_traitsIcESaIcEEEtS8_S8_
libecholib.so.1.3:_ZN8EchoLink5ProxyD1Ev
libecholib.so.1.3:_ZN8EchoLink5ProxyD2Ev
libecholib.so.1.3:_ZN8EchoLink9Directory10makeOnlineEv
libecholib.so.1.3:_ZN8EchoLink9Directory10setServersERKSt6vectorINSt7__cxx1112basic_stringIcSt11char_traitsIcESaIcEEESaIS7_EE
libecholib.so.1.3:_ZN8EchoLink9Directory11findStationEi
libecholib.so.1.3:_ZN8EchoLink9Directory11makeOfflineEv
libecholib.so.1.3:_ZN8EchoLink9Directory11sendNextCmdEv
libecholib.so.1.3:_ZN8EchoLink9Directory11setCallsignERKNSt7__cxx1112basic_stringIcSt11char_traitsIcESaIcEEE
libecholib.so.1.3:_ZN8EchoLink9Directory11setPasswordERKNSt7__cxx1112basic_stringIcSt11char_traitsIcESaIcEEE
libecholib.so.1.3:_ZN8EchoLink9Directory12onCmdTimeoutEPN5Async5TimerE
libecholib.so.1.3:_ZN8EchoLink9Directory13addCmdToQueueE3Cmd
libecholib.so.1.3:_ZN8EchoLink9Directory13ctrlSockReadyEb
libecholib.so.1.3:_ZN8EchoLink9Directory13stationCodeEqERKNS_11StationDataENSt7__cxx1112basic_stringIcSt11char_traitsIcESaIcEEEb
libecholib.so.1.3:_ZN8EchoLink9Directory14handleCallListEPci
libecholib.so.1.3:_ZN8EchoLink9Directory14setDescriptionERKNSt7__cxx1112basic_stringIcSt11char_traitsIcESaIcEEE
libecholib.so.1.3:_ZN8EchoLink9Directory17ctrlSockConnectedEv
libecholib.so.1.3:_ZN8EchoLink9Directory18createClientObjectEv
libecholib.so.1.3:_ZN8EchoLink9Directory18findStationsByCodeERSt6vectorINS_11StationDataESaIS2_EERKNSt7__cxx1112basic_stringIcSt11char_traitsIcESaIcEEEb
libecholib.so.1.3:_ZN8EchoLink9Directory20ctrlSockDataReceivedEPvj
libecholib.so.1.3:_ZN8EchoLink9Directory20ctrlSockDisconnectedEv
libecholib.so.1.3:_ZN8EchoLink9Directory21onRefreshRegistrationEPN5Async5TimerE
libecholib.so.1.3:_ZN8EchoLink9Directory8findCallERKNSt7__cxx1112basic_stringIcSt11char_traitsIcESaIcEEE
libecholib.so.1.3:_ZN8EchoLink9Directory8getCallsEv
libecholib.so.1.3:_ZN8EchoLink9Directory8makeBusyEv
libecholib.so.1.3:_ZN8EchoLink9Directory8printBufEPKhi
libecholib.so.1.3:_ZN8EchoLink9Directory9setStatusENS_11StationData6StatusE
libecholib.so.1.3:_ZN8EchoLink9DirectoryC1ERKSt6vectorINSt7__cxx1112basic_stringIcSt11char_traitsIcESaIcEEESaIS7_EERKS7_SD_SD_RKN5Async9IpAddressE
libecholib.so.1.3:_ZN8EchoLink9DirectoryC2ERKSt6vectorINSt7__cxx1112basic_stringIcSt11char_traitsIcESaIcEEESaIS7_EERKS7_SD_SD_RKN5Async9IpAddressE
libecholib.so.1.3:_ZN8EchoLink9DirectoryD1Ev
libecholib.so.1.3:_ZN8EchoLink9DirectoryD2Ev
libecholib.so.1.3:_ZN8EchoLinklsERSoRKNS_11StationDataE
libecholib.so.1.3:_ZNK4sigc7signal0IvNS_3nilEE4emitEv
libecholib.so.1.3:_ZNK4sigc7signal2IiPvjNS_3nilEE4emitERKS1_RKj
libecholib.so.1.3:_ZNK8EchoLink12DirectoryCon6isIdleEv
libecholib.so.1.3:_ZThn40_N8EchoLink3Qso12resumeOutputEv
libecholib.so.1.3:_ZThn40_N8EchoLink3Qso17allSamplesFlushedEv
libecholib.so.1.3:_ZThn40_N8EchoLink3QsoD0Ev
libecholib.so.1.3:_ZThn40_N8EchoLink3QsoD1Ev
libecholib.so.1.3:md5_append
libecholib.so.1.3:md5_finish
libecholib.so.1.3:md5_init
